(dp0
S':0015:HIS'
p1
(dp2
S':0115'
p3
(dp4
S'H'
p5
S'absent'
p6
sS'N'
p7
g6
ssS':0114'
p8
(dp9
g5
g6
sS'HA'
p10
g6
sg7
g6
ssS':0117'
p11
(dp12
g5
g6
sg7
g6
ssS':0116'
p13
(dp14
g7
g6
ssS':0069'
p15
(dp16
g10
g6
sg7
g6
ssS':0068'
p17
(dp18
g5
g6
sg7
g6
ssS':0113'
p19
(dp20
g10
g6
sg7
g6
ssS':0112'
p21
(dp22
g5
g6
ssS':0065'
p23
(dp24
g7
g6
ssS':0064'
p25
(dp26
g7
g6
ssS':0067'
p27
(dp28
g5
g6
sg10
g6
sg7
g6
ssS':0066'
p29
(dp30
g5
g6
sg7
g6
ssS':0061'
p31
(dp32
g10
g6
sg7
g6
ssS':0060'
p33
(dp34
g5
g6
sg7
g6
ssS':0063'
p35
(dp36
g5
g6
sg7
g6
ssS':0062'
p37
(dp38
g5
g6
sg7
g6
ssS':0103'
p39
(dp40
g5
g6
sg7
g6
ssS':0106'
p41
(dp42
g7
g6
ssS':0107'
p43
(dp44
g7
g6
ssS':0104'
p45
(dp46
g5
g6
sg7
g6
ssS':0105'
p47
(dp48
g5
g6
sg7
g6
ssS':0102'
p49
(dp50
g5
g6
sg7
g6
ssS':0100'
p51
(dp52
g5
g6
sg7
g6
ssS':0078'
p53
(dp54
g10
g6
sg7
g6
ssS':0079'
p55
(dp56
sS':0076'
p57
(dp58
g10
g6
sg7
g6
ssS':0077'
p59
(dp60
g7
g6
ssS':0074'
p61
(dp62
g5
g6
sg7
g6
ssS':0075'
p63
(dp64
g10
g6
sg7
g6
ssS':0072'
p65
(dp66
g7
g6
ssS':0073'
p67
(dp68
g5
g6
sg7
g6
ssS':0070'
p69
(dp70
sS':0071'
p71
(dp72
g5
g6
sg10
g6
sg7
g6
ssS':0108'
p73
(dp74
g5
g6
sg7
g6
ssS':0109'
p75
(dp76
g5
g6
sg10
g6
sg7
g6
ssS':0049'
p77
(dp78
g5
g6
sg7
g6
ssS':0048'
p79
(dp80
g5
g6
sg7
g6
ssS':0043'
p81
(dp82
g5
g6
sg10
g6
sg7
g6
ssS':0042'
p83
(dp84
g5
g6
sg10
g6
sg7
g6
ssS':0041'
p85
(dp86
g5
g6
sg7
g6
ssS':0040'
p87
(dp88
g5
g6
sg7
g6
ssS':0047'
p89
(dp90
g5
g6
sg10
g6
sg7
g6
ssS':0046'
p91
(dp92
g5
g6
sg10
g6
sg7
g6
ssS':0045'
p93
(dp94
g5
g6
sg10
g6
sg7
g6
ssS':0044'
p95
(dp96
g5
g6
sg10
g6
sg7
g6
ssS':0054'
p97
(dp98
g7
g6
ssS':0055'
p99
(dp100
g5
g6
sg7
g6
ssS':0056'
p101
(dp102
g10
g6
sg7
g6
ssS':0057'
p103
(dp104
g5
g6
sg7
g6
ssS':0050'
p105
(dp106
g10
g6
sg7
g6
ssS':0051'
p107
(dp108
g5
g6
sg10
g6
sg7
g6
ssS':0052'
p109
(dp110
g10
g6
sg7
g6
ssS':0053'
p111
(dp112
g7
g6
ssS':0111'
p113
(dp114
g5
g6
sg7
g6
ssS':0058'
p115
(dp116
g5
g6
sg7
g6
ssS':0059'
p117
(dp118
g5
g6
sg10
g6
sg7
g6
ssS':0110'
p119
(dp120
g10
g6
ssS':0128'
p121
(dp122
g5
g6
sg10
g6
sg7
g6
ssS':0129'
p123
(dp124
g5
g6
sg10
g6
sg7
g6
ssS':0124'
p125
(dp126
g5
g6
sg7
g6
ssS':0125'
p127
(dp128
g5
g6
sg7
g6
ssS':0126'
p129
(dp130
g5
g6
sg7
g6
ssS':0127'
p131
(dp132
g10
g6
sg7
g6
ssS':0120'
p133
(dp134
g5
g6
sg7
g6
ssS':0121'
p135
(dp136
g5
g6
sg10
g6
sg7
g6
ssS':0122'
p137
(dp138
g5
g6
sg10
g6
sg7
g6
ssS':0123'
p139
(dp140
g5
g6
sg10
g6
sg7
g6
ssS':0119'
p141
(dp142
g5
g6
sg7
g6
ssS':0118'
p143
(dp144
g7
g6
ssS':0021'
p145
(dp146
g5
S'q0.02'
p147
ssS':0020'
p148
(dp149
g5
g6
sg7
S'0.35'
p150
ssS':0023'
p151
(dp152
g7
S'q0.07'
p153
ssS':0022'
p154
(dp155
g7
g6
ssS':0025'
p156
(dp157
g5
g6
ssS':0024'
p158
(dp159
g5
g6
sg7
g6
ssS':0027'
p160
(dp161
g7
g6
ssS':0026'
p162
(dp163
g5
g6
ssS':0029'
p164
(dp165
g7
g6
ssS':0028'
p166
(dp167
g5
g6
ssS':0091'
p168
(dp169
g5
S'-0.05'
p170
ssS':0032'
p171
(dp172
g5
g6
sg10
g6
sg7
g6
ssS':0033'
p173
(dp174
g5
g6
sg7
g6
ssS':0030'
p175
(dp176
g5
g6
sg7
g6
ssS':0031'
p177
(dp178
g5
g6
sg10
g6
sg7
g6
ssS':0036'
p179
(dp180
g5
g6
sg7
g6
ssS':0037'
p181
(dp182
g5
g6
sg7
g6
ssS':0034'
p183
(dp184
g5
g6
sg7
g6
ssS':0035'
p185
(dp186
g5
g6
sg10
g6
sg7
g6
ssS':0038'
p187
(dp188
g5
g6
sg7
g6
ssS':0039'
p189
(dp190
g5
g6
sg10
g6
sg7
g6
ssS':0009'
p191
(dp192
sS':0008'
p193
(dp194
g10
S'0.03'
p195
sg7
g6
ssS':0007'
p196
(dp197
g5
g6
sg7
g6
ssS':0006'
p198
(dp199
g5
g6
sg7
S'q-0.08'
p200
ssS':0005'
p201
(dp202
g7
g6
ssS':0004'
p203
(dp204
g5
g6
sg7
g6
ssS':0003'
p205
(dp206
g7
g6
ssS':0002'
p207
(dp208
g5
g6
sg7
g6
ssS':0087'
p209
(dp210
g7
S'-0.14'
p211
ssS':0086'
p212
(dp213
sS':0085'
p214
(dp215
sS':0084'
p216
(dp217
g5
g6
sg10
g6
sg7
g6
ssS':0083'
p218
(dp219
g10
g6
sg7
g6
ssS':0082'
p220
(dp221
g5
g6
sg10
g6
sg7
g6
ssS':0081'
p222
(dp223
g5
g6
sg7
g6
ssS':0080'
p224
(dp225
g7
g6
ssS':0089'
p226
(dp227
g5
S'-0.06'
p228
sg7
S'q-0.25'
p229
ssS':0088'
p230
(dp231
g7
S'-0.3'
p232
ssS':0018'
p233
(dp234
g5
S'-0.03'
p235
sg7
S'-0.2'
p236
ssS':0019'
p237
(dp238
g5
S'0.12'
p239
sg10
S'-0.04'
p240
sg7
S'0.15'
p241
ssS':0010'
p242
(dp243
g5
S'q-0.04'
p244
sg10
S'-0.03'
p245
sg7
S'-0.37'
p246
ssS':0011'
p247
(dp248
g5
S'-0.04'
p249
sg10
S'<-0.05;>-0.2'
p250
sg7
S'0.44'
p251
ssS':0012'
p252
(dp253
g5
S'-0.18'
p254
sg7
S'-2.33'
p255
ssS':0013'
p256
(dp257
g5
S'-0.09'
p258
sg10
S'-0.01'
p259
sg7
S'-0.98'
p260
ssS':0014'
p261
(dp262
g5
S'-0.26'
p263
sg7
S'1.6'
p264
ssS':0015'
p265
(dp266
sS':0016'
p267
(dp268
g5
S'0.06'
p269
sg7
S'0.07'
p270
ssS':0017'
p271
(dp272
g5
S'0.07'
p273
sg7
S'-0.14'
p274
ssS':0090'
p275
(dp276
g5
S'q-0.11'
p277
sg10
S'-0.01'
p278
sg7
S'-0.31'
p279
ssS':0"*"'
p280
(dp281
sS':0092'
p282
(dp283
g7
S'q-0.3'
p284
ssS':0093'
p285
(dp286
g5
S'q-0.05'
p287
sg7
S'q-0.33'
p288
ssS':0094'
p289
(dp290
g10
g6
sg7
S'-0.14'
p291
ssS':0095'
p292
(dp293
g5
S'q0.05'
p294
ssS':0096'
p295
(dp296
g5
S'0.07'
p297
ssS':0097'
p298
(dp299
sS':0098'
p300
(dp301
sS':0099'
p302
(dp303
g5
g6
sg10
g6
ssS':0101'
p304
(dp305
g5
g6
sg7
g6
sssS':0119:ASP'
p306
(dp307
g3
(dp308
g5
g6
sg7
g6
ssg8
(dp309
g5
g6
sg10
g6
ssg11
(dp310
g5
g6
ssg13
(dp311
g7
S'q>-0.3;<-0.1'
p312
ssg15
(dp313
g10
g6
sg7
g6
ssg17
(dp314
g5
g6
sg7
g6
ssg19
(dp315
g10
g6
sg7
g6
ssg21
(dp316
g5
g6
sg10
g6
ssg23
(dp317
g7
g6
ssg25
(dp318
g7
g6
ssg27
(dp319
g5
g6
sg10
g6
sg7
g6
ssg29
(dp320
g5
g6
sg7
g6
ssg31
(dp321
g10
g6
sg7
g6
ssg33
(dp322
g5
g6
sg7
g6
ssg35
(dp323
g5
g6
sg7
g6
ssg37
(dp324
g5
g6
sg7
g6
ssg39
(dp325
g5
g6
sg7
g6
ssg41
(dp326
g7
g6
ssg43
(dp327
g7
g6
ssg45
(dp328
g5
g6
sg7
g6
ssg47
(dp329
g5
g6
sg7
g6
ssg49
(dp330
g5
g6
sg7
g6
ssg51
(dp331
g5
g6
sg7
g6
ssg53
(dp332
g10
g6
sg7
g6
ssg55
(dp333
sg57
(dp334
g10
g6
sg7
g6
ssg59
(dp335
g7
g6
ssg61
(dp336
g5
g6
sg7
g6
ssg63
(dp337
g10
g6
sg7
g6
ssg65
(dp338
g7
g6
ssg67
(dp339
g5
g6
sg7
g6
ssg69
(dp340
sg71
(dp341
g5
g6
sg10
g6
sg7
g6
ssg73
(dp342
g5
g6
sg7
g6
ssg75
(dp343
g5
g6
sg10
g6
sg7
g6
ssg77
(dp344
g5
g6
sg7
g6
ssg79
(dp345
g5
g6
sg7
g6
ssg81
(dp346
g5
g6
sg10
g6
sg7
g6
ssg83
(dp347
g5
g6
sg10
g6
sg7
g6
ssg85
(dp348
g5
g6
sg7
g6
ssg87
(dp349
g5
g6
sg7
g6
ssg89
(dp350
g5
g6
sg10
g6
sg7
g6
ssg91
(dp351
g5
g6
sg10
g6
sg7
g6
ssg93
(dp352
g5
g6
sg10
g6
sg7
g6
ssg95
(dp353
g5
g6
sg10
g6
sg7
g6
ssg97
(dp354
g7
g6
ssg99
(dp355
g5
g6
sg7
g6
ssg101
(dp356
g10
g6
sg7
g6
ssg103
(dp357
g5
g6
sg7
g6
ssg105
(dp358
g10
g6
sg7
g6
ssg107
(dp359
g5
g6
sg10
g6
sg7
g6
ssg109
(dp360
g10
g6
sg7
g6
ssg111
(dp361
g7
g6
ssg113
(dp362
g5
g6
sg7
g6
ssg115
(dp363
g5
g6
sg7
g6
ssg117
(dp364
g5
g6
sg10
g6
sg7
g6
ssg119
(dp365
g10
g6
ssg121
(dp366
g7
g6
ssg123
(dp367
g7
g6
ssg125
(dp368
g5
S'0.05'
p369
sg10
S'-0.01'
p370
sg7
g6
ssg127
(dp371
g5
S'0.05'
p372
ssg129
(dp373
g5
g6
ssg131
(dp374
sg133
(dp375
g5
S'-0.1'
p376
sg7
g6
ssg135
(dp377
g5
S'-0.1'
p378
sg10
S'<-0.04;>-0.1'
p379
sg7
S'-0.62'
p380
ssg137
(dp381
g5
S'>0.05;<0.1'
p382
sg10
S'-0.06'
p383
sg7
S'>0.6;<1.0'
p384
ssg139
(dp385
g5
S'>-0.2;<-0.14'
p386
sg10
S'<-0.02;>-0.05'
p387
sg7
S'-0.59'
p388
ssg141
(dp389
sg143
(dp390
g7
S'q0.2'
p391
ssg145
(dp392
g5
g6
sg7
g6
ssg148
(dp393
g5
g6
sg7
g6
ssg151
(dp394
g5
g6
sg10
g6
sg7
g6
ssg154
(dp395
g5
g6
sg10
g6
sg7
g6
ssg156
(dp396
g5
g6
sg7
g6
ssg158
(dp397
g5
g6
sg7
g6
ssg160
(dp398
g5
g6
sg7
g6
ssg162
(dp399
g5
g6
sg7
g6
ssg164
(dp400
g5
g6
sg7
g6
ssg166
(dp401
g5
g6
sg7
g6
ssg168
(dp402
g5
g6
sg7
g6
ssg171
(dp403
g10
g6
sg7
g6
ssg173
(dp404
g7
g6
ssg175
(dp405
g5
g6
sg7
g6
ssg177
(dp406
g5
g6
sg10
g6
sg7
S'q0.1'
p407
ssg179
(dp408
g5
g6
sg7
g6
ssg181
(dp409
g5
g6
sg7
g6
ssg183
(dp410
g7
g6
ssg185
(dp411
g5
g6
sg10
g6
sg7
g6
ssg187
(dp412
g5
g6
sg7
g6
ssg189
(dp413
g5
g6
sg10
g6
sg7
g6
ssg191
(dp414
sg193
(dp415
g5
g6
sg10
g6
sg7
g6
ssg196
(dp416
g5
g6
sg10
g6
sg7
g6
ssg198
(dp417
g5
g6
sg7
g6
ssg201
(dp418
g5
g6
sg10
g6
sg7
g6
ssg203
(dp419
g5
g6
sg10
g6
sg7
g6
ssg205
(dp420
g5
g6
sg10
g6
sg7
g6
ssg207
(dp421
g5
g6
sg7
g6
ssg209
(dp422
g7
g6
ssg212
(dp423
g5
g6
sg7
g6
ssg214
(dp424
g5
g6
sg7
g6
ssg216
(dp425
g5
g6
sg10
g6
sg7
g6
ssg218
(dp426
g10
g6
sg7
g6
ssg220
(dp427
g5
g6
sg10
g6
sg7
g6
ssg222
(dp428
g5
g6
sg7
g6
ssg224
(dp429
g7
g6
ssg226
(dp430
g5
g6
sg7
g6
ssg230
(dp431
g7
g6
ssg233
(dp432
g5
g6
sg7
g6
ssg237
(dp433
g5
g6
sg10
g6
sg7
g6
ssg242
(dp434
g5
g6
sg10
g6
sg7
g6
ssg247
(dp435
g5
g6
sg10
g6
sg7
g6
ssg252
(dp436
g5
g6
sg7
g6
ssg256
(dp437
g5
g6
sg7
g6
ssg261
(dp438
g5
g6
sg7
g6
ssg265
(dp439
g5
g6
sg7
g6
ssg267
(dp440
g5
g6
sg7
g6
ssg271
(dp441
g5
g6
sg7
g6
ssg275
(dp442
g5
g6
sg10
g6
sg7
g6
ssg280
(dp443
sg282
(dp444
g7
g6
ssg285
(dp445
g5
g6
sg7
g6
ssg289
(dp446
g10
g6
sg7
g6
ssg292
(dp447
g5
g6
sg10
g6
sg7
g6
ssg295
(dp448
g5
g6
sg10
g6
sg7
g6
ssg298
(dp449
g5
g6
sg7
g6
ssg300
(dp450
g10
g6
sg7
g6
ssg302
(dp451
g5
g6
sg10
g6
sg7
g6
ssg304
(dp452
g5
g6
sg7
g6
sssS':0052:ASP'
p453
(dp454
g3
(dp455
g5
g6
sg7
g6
ssg8
(dp456
g5
g6
sg10
S'-0.01'
p457
sg7
S'q0.16'
p458
ssg11
(dp459
g5
g6
sg7
g6
ssg13
(dp460
g7
g6
ssg15
(dp461
g10
S'-0.02'
p462
sg7
S'q0.43'
p463
ssg17
(dp464
g5
g6
sg7
S'q-0.17'
p465
ssg19
(dp466
g10
S'0.01'
p467
sg7
g6
ssg21
(dp468
g10
S'0.02'
p469
ssg23
(dp470
sg25
(dp471
sg27
(dp472
g5
g6
sg7
g6
ssg29
(dp473
g5
S'0.13'
p474
sg7
S'q0.23'
p475
ssg31
(dp476
g10
S'0.02'
p477
sg7
S'q-0.16'
p478
ssg33
(dp479
g5
g6
sg7
S'q0.08'
p480
ssg35
(dp481
g5
S'q0.07'
p482
ssg37
(dp483
g5
S'-0.17'
p484
sg7
S'q0.5'
p485
ssg39
(dp486
g5
g6
sg7
g6
ssg41
(dp487
sg43
(dp488
sg45
(dp489
g5
g6
sg7
g6
ssg47
(dp490
g7
g6
ssg49
(dp491
g5
g6
sg7
g6
ssg51
(dp492
g5
g6
sg7
g6
ssg53
(dp493
g10
g6
ssg55
(dp494
sg57
(dp495
sg59
(dp496
g7
g6
ssg61
(dp497
g7
S'q0.2'
p498
ssg63
(dp499
g7
g6
ssg65
(dp500
g7
S'q-0.34'
p501
ssg67
(dp502
g5
S'0.09'
p503
sg7
S'q-0.22'
p504
ssg69
(dp505
sg71
(dp506
g10
S'-0.02;-0.02'
p507
sg7
S'q-0.13'
p508
ssg73
(dp509
g7
S'-0.25'
p510
ssg75
(dp511
g5
S'0.14'
p512
sg10
S'-0.02'
p513
sg7
S'0.07'
p514
ssg77
(dp515
g5
g6
sg10
S'-0.01;0.01'
p516
ssg79
(dp517
g5
S'q0.03'
p518
sg7
S'0.32'
p519
ssg81
(dp520
g5
S'-0.08'
p521
sg10
S'0.07'
p522
ssg83
(dp523
g5
g6
sg10
S'0.02'
p524
sg7
g6
ssg85
(dp525
g5
g6
sg7
g6
ssg87
(dp526
g5
g6
sg7
g6
ssg89
(dp527
g5
S'0.05'
p528
sg10
S'-0.02'
p529
sg7
S'0.23'
p530
ssg91
(dp531
g5
S'q-0.04'
p532
ssg93
(dp533
g5
S'-0.12'
p534
sg10
S'0.03'
p535
sg7
S'0.88'
p536
ssg95
(dp537
g5
S'q0.06'
p538
sg10
S'-0.04'
p539
sg7
g6
ssg97
(dp540
g7
S'-0.29'
p541
ssg99
(dp542
g5
S'-0.07'
p543
sg7
S'q0.1'
p544
ssg101
(dp545
g10
S'-0.02'
p546
sg7
S'0.24'
p547
ssg103
(dp548
g5
S'q-0.07'
p549
ssg105
(dp550
g10
S'0.04'
p551
sg7
S'q0.32'
p552
ssg107
(dp553
g5
S'0.16'
p554
sg10
S'0.16'
p555
ssg109
(dp556
sg111
(dp557
g7
S'q-0.56'
p558
ssg113
(dp559
sg115
(dp560
g5
S'q0.15'
p561
sg7
S'0.15'
p562
ssg117
(dp563
g5
S'q0.17'
p564
sg10
S'-0.05'
p565
ssg119
(dp566
g10
S'-0.02'
p567
ssg121
(dp568
g5
g6
sg10
g6
sg7
g6
ssg123
(dp569
g5
g6
sg10
g6
sg7
g6
ssg125
(dp570
g5
g6
sg10
g6
sg7
g6
ssg127
(dp571
g5
g6
sg7
g6
ssg129
(dp572
g5
g6
sg7
g6
ssg131
(dp573
g10
g6
sg7
g6
ssg133
(dp574
g5
g6
sg7
g6
ssg135
(dp575
g5
g6
sg10
g6
sg7
g6
ssg137
(dp576
g5
g6
sg10
g6
sg7
g6
ssg139
(dp577
g5
g6
sg10
g6
sg7
g6
ssg141
(dp578
g5
g6
sg7
g6
ssg143
(dp579
g7
g6
ssg145
(dp580
g5
g6
sg7
g6
ssg148
(dp581
g5
g6
sg7
g6
ssg151
(dp582
g5
g6
sg10
g6
sg7
g6
ssg154
(dp583
g5
g6
sg10
g6
sg7
g6
ssg156
(dp584
g5
g6
sg7
g6
ssg158
(dp585
g5
g6
sg7
g6
ssg160
(dp586
g5
g6
sg7
g6
ssg162
(dp587
g5
g6
sg7
g6
ssg164
(dp588
g5
g6
ssg166
(dp589
g5
g6
sg7
g6
ssg168
(dp590
g5
g6
sg7
g6
ssg171
(dp591
g10
S'-0.01'
p592
sg7
g6
ssg173
(dp593
g7
S'-0.21'
p594
ssg175
(dp595
g5
g6
ssg177
(dp596
g5
g6
sg10
S'-0.01'
p597
ssg179
(dp598
g5
S'-0.04'
p599
sg7
S'-0.2'
p600
ssg181
(dp601
g5
S'q-0.05'
p602
ssg183
(dp603
g7
g6
ssg185
(dp604
g5
S'0.04'
p605
sg10
S'-0.03'
p606
sg7
S'0.19'
p607
ssg187
(dp608
g5
S'0.03'
p609
sg7
S'0.11'
p610
ssg189
(dp611
g10
S'0.02'
p612
sg7
g6
ssg191
(dp613
sg193
(dp614
g5
g6
sg10
g6
sg7
g6
ssg196
(dp615
g5
g6
sg10
g6
sg7
g6
ssg198
(dp616
g5
g6
sg7
g6
ssg201
(dp617
g5
g6
sg10
g6
sg7
g6
ssg203
(dp618
g5
g6
sg10
g6
sg7
g6
ssg205
(dp619
g5
g6
sg10
g6
sg7
g6
ssg207
(dp620
g5
g6
sg7
g6
ssg209
(dp621
g7
g6
ssg212
(dp622
g5
g6
sg7
g6
ssg214
(dp623
g5
g6
sg7
g6
ssg216
(dp624
g5
g6
sg7
g6
ssg218
(dp625
g10
S'0.01'
p626
ssg220
(dp627
g5
g6
ssg222
(dp628
g5
g6
ssg224
(dp629
sg226
(dp630
g5
g6
sg7
g6
ssg230
(dp631
g7
g6
ssg233
(dp632
g5
g6
sg7
g6
ssg237
(dp633
g5
g6
sg10
g6
sg7
g6
ssg242
(dp634
g5
g6
sg10
g6
sg7
g6
ssg247
(dp635
g5
g6
sg10
g6
sg7
g6
ssg252
(dp636
g5
g6
sg7
g6
ssg256
(dp637
g5
g6
sg7
g6
ssg261
(dp638
g5
g6
sg7
g6
ssg265
(dp639
g5
g6
sg7
g6
ssg267
(dp640
g5
g6
sg7
g6
ssg271
(dp641
g5
g6
sg7
g6
ssg275
(dp642
g5
g6
sg10
g6
sg7
g6
ssg280
(dp643
sg282
(dp644
g7
g6
ssg285
(dp645
g5
g6
sg7
g6
ssg289
(dp646
g10
g6
sg7
g6
ssg292
(dp647
g5
g6
sg10
g6
sg7
g6
ssg295
(dp648
g5
g6
sg10
g6
sg7
g6
ssg298
(dp649
g5
g6
sg7
g6
ssg300
(dp650
g10
g6
sg7
g6
ssg302
(dp651
g5
g6
sg10
g6
sg7
g6
ssg304
(dp652
g5
g6
sg7
g6
sssS':0018:ASP'
p653
(dp654
g3
(dp655
g5
g6
sg7
g6
ssg8
(dp656
g5
g6
sg10
g6
sg7
g6
ssg11
(dp657
g5
g6
sg7
g6
ssg13
(dp658
g7
g6
ssg15
(dp659
g10
g6
sg7
g6
ssg17
(dp660
g5
g6
sg7
g6
ssg19
(dp661
g10
g6
sg7
g6
ssg21
(dp662
g10
g6
ssg23
(dp663
g7
g6
ssg25
(dp664
g7
g6
ssg27
(dp665
g5
g6
sg10
g6
sg7
g6
ssg29
(dp666
g5
g6
sg7
g6
ssg31
(dp667
g10
g6
sg7
g6
ssg33
(dp668
g5
g6
sg7
g6
ssg35
(dp669
g5
g6
sg7
g6
ssg37
(dp670
g5
g6
sg7
g6
ssg39
(dp671
g5
g6
sg7
g6
ssg41
(dp672
g7
g6
ssg43
(dp673
g7
g6
ssg45
(dp674
g5
g6
sg7
g6
ssg47
(dp675
g5
g6
sg7
g6
ssg49
(dp676
g5
g6
sg7
g6
ssg51
(dp677
g5
g6
sg7
g6
ssg53
(dp678
g10
g6
sg7
g6
ssg55
(dp679
sg57
(dp680
g10
g6
sg7
g6
ssg59
(dp681
g7
g6
ssg61
(dp682
g5
g6
sg7
g6
ssg63
(dp683
g10
g6
sg7
g6
ssg65
(dp684
g7
g6
ssg67
(dp685
g5
g6
sg7
g6
ssg69
(dp686
sg71
(dp687
g5
g6
sg10
g6
sg7
g6
ssg73
(dp688
g5
g6
sg7
g6
ssg75
(dp689
g5
g6
sg10
g6
sg7
g6
ssg77
(dp690
g5
g6
sg7
g6
ssg79
(dp691
g5
g6
sg7
g6
ssg81
(dp692
g5
g6
sg10
g6
sg7
g6
ssg83
(dp693
g5
g6
sg10
g6
sg7
g6
ssg85
(dp694
g5
g6
sg7
g6
ssg87
(dp695
g5
g6
sg7
g6
ssg89
(dp696
g5
g6
sg10
g6
sg7
g6
ssg91
(dp697
g5
g6
sg10
g6
sg7
g6
ssg93
(dp698
g5
g6
sg10
g6
sg7
g6
ssg95
(dp699
g5
g6
sg10
g6
sg7
g6
ssg97
(dp700
g7
g6
ssg99
(dp701
g5
g6
sg7
g6
ssg101
(dp702
g10
g6
sg7
g6
ssg103
(dp703
g5
g6
sg7
g6
ssg105
(dp704
g10
g6
sg7
g6
ssg107
(dp705
g5
g6
sg10
g6
sg7
g6
ssg109
(dp706
g10
g6
sg7
g6
ssg111
(dp707
g7
g6
ssg113
(dp708
g5
g6
sg7
g6
ssg115
(dp709
g5
g6
sg7
g6
ssg117
(dp710
g5
g6
sg10
g6
sg7
g6
ssg119
(dp711
g10
g6
ssg121
(dp712
g5
g6
sg10
g6
sg7
g6
ssg123
(dp713
g5
g6
sg10
g6
sg7
g6
ssg125
(dp714
g5
g6
sg10
g6
sg7
g6
ssg127
(dp715
g5
g6
sg7
S'q-0.07'
p716
ssg129
(dp717
g5
g6
sg7
g6
ssg131
(dp718
g10
g6
ssg133
(dp719
g5
g6
sg7
g6
ssg135
(dp720
g5
g6
sg10
g6
sg7
g6
ssg137
(dp721
g5
g6
sg10
g6
sg7
g6
ssg139
(dp722
g5
g6
sg10
g6
sg7
g6
ssg141
(dp723
g5
g6
sg7
g6
ssg143
(dp724
g7
g6
ssg145
(dp725
g10
S'>0.01;<0.04'
p726
sg7
S'>0.08;<0.15'
p727
ssg148
(dp728
g5
S'>0.15;<0.25'
p729
sg7
S'>0.4;<0.7'
p730
ssg151
(dp731
g5
S'q>-0.06;<-0.03'
p732
sg10
S'0.02'
p733
sg7
S'>-0.15;<-0.08'
p734
ssg154
(dp735
g5
S'q>-0.06;<-0.03'
p736
sg10
S'-0.01;0.01'
p737
sg7
g6
ssg156
(dp738
g5
S'>0.25;<0.4'
p739
sg7
S'>0.15;<0.35'
p740
ssg158
(dp741
g5
S'>0.06;<0.1'
p742
sg7
S'>0.3;<0.6'
p743
ssg160
(dp744
g5
S'>0.08;<0.15'
p745
sg7
S'q>-0.4;<-0.15'
p746
ssg162
(dp747
g5
S'>0.04;<0.08'
p748
sg7
S'q>-1.2;<-0.7'
p749
ssg164
(dp750
g7
g6
ssg166
(dp751
g7
S'q>0.1;<0.2'
p752
ssg168
(dp753
g5
g6
sg7
g6
ssg171
(dp754
g5
g6
sg10
g6
sg7
g6
ssg173
(dp755
g5
g6
sg7
g6
ssg175
(dp756
g5
g6
sg7
g6
ssg177
(dp757
g5
g6
sg10
g6
sg7
g6
ssg179
(dp758
g5
g6
sg7
g6
ssg181
(dp759
g5
g6
sg7
g6
ssg183
(dp760
g5
g6
sg7
g6
ssg185
(dp761
g5
g6
sg10
g6
sg7
g6
ssg187
(dp762
g5
g6
sg7
g6
ssg189
(dp763
g5
g6
sg10
g6
sg7
g6
ssg191
(dp764
sg193
(dp765
g5
g6
sg10
g6
sg7
g6
ssg196
(dp766
g5
g6
sg10
g6
sg7
g6
ssg198
(dp767
g5
g6
sg7
g6
ssg201
(dp768
g5
g6
sg10
g6
sg7
g6
ssg203
(dp769
g5
g6
sg10
g6
sg7
g6
ssg205
(dp770
g5
g6
sg10
g6
sg7
g6
ssg207
(dp771
g5
g6
sg7
g6
ssg209
(dp772
g7
g6
ssg212
(dp773
g5
g6
sg7
g6
ssg214
(dp774
g5
g6
sg7
g6
ssg216
(dp775
g5
g6
sg10
g6
sg7
g6
ssg218
(dp776
g10
g6
sg7
g6
ssg220
(dp777
g5
g6
sg10
g6
sg7
g6
ssg222
(dp778
g5
g6
sg7
g6
ssg224
(dp779
g7
g6
ssg226
(dp780
g5
g6
sg7
g6
ssg230
(dp781
g7
g6
ssg233
(dp782
sg237
(dp783
g5
S'>0.15;<0.25'
p784
sg10
S'<-0.15;>-0.3'
p785
sg7
S'>1.3;<1.8'
p786
ssg242
(dp787
g10
g6
sg7
g6
ssg247
(dp788
g5
g6
sg7
g6
ssg252
(dp789
g5
g6
sg7
g6
ssg256
(dp790
g5
g6
sg7
g6
ssg261
(dp791
g5
g6
sg7
g6
ssg265
(dp792
g7
g6
ssg267
(dp793
g5
S'>0.05;<0.1'
p794
sg7
S'>0.3;<0.5'
p795
ssg271
(dp796
g5
S'>-0.2;<-0.14'
p797
sg7
S'>-0.4;<-0.2'
p798
ssg275
(dp799
g5
g6
sg10
g6
sg7
g6
ssg280
(dp800
sg282
(dp801
g7
g6
ssg285
(dp802
g5
g6
sg7
g6
ssg289
(dp803
g10
g6
sg7
g6
ssg292
(dp804
g5
g6
sg10
g6
sg7
g6
ssg295
(dp805
g5
g6
sg10
g6
sg7
g6
ssg298
(dp806
g5
g6
sg7
g6
ssg300
(dp807
g10
g6
sg7
g6
ssg302
(dp808
g5
g6
sg10
g6
sg7
g6
ssg304
(dp809
g5
g6
sg7
g6
sssS':0035:GLU'
p810
(dp811
g3
(dp812
g5
S'q0.07'
p813
ssg8
(dp814
g5
S'0.21'
p815
sg10
S'-0.02'
p816
sg7
S'0.3'
p817
ssg11
(dp818
g5
g6
ssg13
(dp819
g5
S'q0.03'
p820
ssg15
(dp821
g10
S'0.01'
p822
ssg17
(dp823
g5
g6
ssg19
(dp824
g5
S'q0.03'
p825
sg10
S'-0.02'
p826
sg7
S'0.56'
p827
ssg21
(dp828
sg23
(dp829
sg25
(dp830
sg27
(dp831
g5
g6
sg10
S'-0.02;0.01'
p832
ssg29
(dp833
g7
S'q-0.09'
p834
ssg31
(dp835
sg33
(dp836
g7
S'q-0.1'
p837
ssg35
(dp838
g7
S'q0.13'
p839
ssg37
(dp840
g5
S'-0.03'
p841
ssg39
(dp842
g5
g6
ssg41
(dp843
g7
S'-0.13'
p844
ssg43
(dp845
g7
S'0.08'
p846
ssg45
(dp847
g5
S'0.04'
p848
sg7
S'0.1'
p849
ssg47
(dp850
sg49
(dp851
g5
g6
sg7
S'q-0.28'
p852
ssg51
(dp853
sg53
(dp854
sg55
(dp855
sg57
(dp856
g10
S'-0.03'
p857
ssg59
(dp858
g7
g6
ssg61
(dp859
g5
S'q-0.03'
p860
sg7
S'q-0.13'
p861
ssg63
(dp862
g10
S'-0.02'
p863
sg7
g6
ssg65
(dp864
sg67
(dp865
g5
S'q0.03'
p866
sg7
S'q0.12'
p867
ssg69
(dp868
sg71
(dp869
g5
g6
sg10
S'0.02'
p870
ssg73
(dp871
g5
S'q0.06'
p872
sg7
S'0.87'
p873
ssg75
(dp874
g5
S'0.12'
p875
sg10
S'-0.13'
p876
sg7
S'0.61'
p877
ssg77
(dp878
sg79
(dp879
g5
S'q0.07'
p880
sg7
S'0.35'
p881
ssg81
(dp882
sg83
(dp883
g5
S'q0.03'
p884
sg10
S'-0.02'
p885
sg7
S'0.26'
p886
ssg85
(dp887
g5
g6
ssg87
(dp888
g5
g6
sg7
g6
ssg89
(dp889
g5
S'q0.04'
p890
sg10
S'0.01'
p891
sg7
S'q0.17'
p892
ssg91
(dp893
g10
S'-0.01'
p894
sg7
S'0.21'
p895
ssg93
(dp896
g5
S'-0.05'
p897
sg7
S'-0.09'
p898
ssg95
(dp899
g5
S'q0.04'
p900
sg7
S'0.25'
p901
ssg97
(dp902
g7
S'-0.15'
p903
ssg99
(dp904
g5
S'-0.06'
p905
sg7
S'q-0.1'
p906
ssg101
(dp907
g10
S'0.05'
p908
sg7
S'0.28'
p909
ssg103
(dp910
g5
S'q0.03'
p911
ssg105
(dp912
sg107
(dp913
g5
S'-0.02'
p914
sg10
S'0.04'
p915
sg7
S'0.16'
p916
ssg109
(dp917
g10
S'0.02'
p918
sg7
S'0.2'
p919
ssg111
(dp920
sg113
(dp921
g5
S'0.14'
p922
ssg115
(dp923
g5
S'q-0.07'
p924
sg7
S'-0.7'
p925
ssg117
(dp926
g5
S'q0.02'
p927
sg10
S'0.02'
p928
sg7
S'-0.14'
p929
ssg119
(dp930
g10
S'-0.05'
p931
ssg121
(dp932
g5
g6
sg10
g6
sg7
g6
ssg123
(dp933
g5
g6
sg10
g6
sg7
g6
ssg125
(dp934
g7
g6
ssg127
(dp935
g7
g6
ssg129
(dp936
g5
g6
sg7
g6
ssg131
(dp937
g10
g6
sg7
g6
ssg133
(dp938
g7
g6
ssg135
(dp939
g10
g6
sg7
g6
ssg137
(dp940
g10
g6
sg7
g6
ssg139
(dp941
g10
S'-0.01'
p942
ssg141
(dp943
sg143
(dp944
g7
S'0.09'
p945
ssg145
(dp946
g5
g6
sg7
g6
ssg148
(dp947
g5
g6
sg7
g6
ssg151
(dp948
g5
g6
sg7
g6
ssg154
(dp949
g5
g6
sg7
g6
ssg156
(dp950
sg158
(dp951
g5
g6
sg7
g6
ssg160
(dp952
g5
g6
sg7
S'-0.12'
p953
ssg162
(dp954
sg164
(dp955
g5
S'q-0.07'
p956
sg7
S'q-0.28'
p957
ssg166
(dp958
g5
S'-0.04'
p959
sg10
S'-0.03'
p960
sg7
g6
ssg168
(dp961
g5
g6
ssg171
(dp962
g5
S'-0.09'
p963
sg10
S'0.01'
p964
sg7
S'-0.51'
p965
ssg173
(dp966
g7
S'-0.53'
p967
ssg175
(dp968
g7
S'q-0.16'
p969
ssg177
(dp970
g5
S'-0.04'
p971
sg10
S'0.02'
p972
sg7
S'q0.11'
p973
ssg179
(dp974
g5
S'-0.15'
p975
sg7
S'-0.56'
p976
ssg181
(dp977
g5
S'q-0.04'
p978
ssg183
(dp979
g7
S'0.46'
p980
ssg185
(dp981
sg187
(dp982
g5
S'0.08'
p983
sg7
S'0.42'
p984
ssg189
(dp985
g5
g6
sg7
g6
ssg191
(dp986
sg193
(dp987
g5
g6
sg10
g6
sg7
g6
ssg196
(dp988
g5
g6
sg10
g6
sg7
g6
ssg198
(dp989
g5
g6
sg7
g6
ssg201
(dp990
g5
g6
sg7
g6
ssg203
(dp991
g5
g6
sg7
g6
ssg205
(dp992
g5
g6
sg10
S'-0.01'
p993
sg7
g6
ssg207
(dp994
g5
g6
sg7
S'q0.14'
p995
ssg209
(dp996
g7
g6
ssg212
(dp997
g5
g6
ssg214
(dp998
g5
g6
sg10
S'0.03'
p999
sg7
g6
ssg216
(dp1000
g5
g6
sg10
S'0.01'
p1001
sg7
g6
ssg218
(dp1002
g10
S'0.02'
p1003
ssg220
(dp1004
g5
g6
ssg222
(dp1005
g5
g6
ssg224
(dp1006
sg226
(dp1007
g5
g6
sg7
g6
ssg230
(dp1008
g7
g6
ssg233
(dp1009
g5
g6
sg7
g6
ssg237
(dp1010
g5
g6
sg10
g6
sg7
g6
ssg242
(dp1011
g5
g6
sg10
g6
sg7
g6
ssg247
(dp1012
g5
g6
sg10
g6
sg7
g6
ssg252
(dp1013
g5
g6
sg7
g6
ssg256
(dp1014
g5
g6
sg7
g6
ssg261
(dp1015
g5
g6
sg7
g6
ssg265
(dp1016
g5
g6
sg7
g6
ssg267
(dp1017
g5
g6
sg7
g6
ssg271
(dp1018
g5
g6
sg7
g6
ssg275
(dp1019
g5
g6
sg10
g6
ssg280
(dp1020
sg282
(dp1021
g7
g6
ssg285
(dp1022
g5
g6
sg7
g6
ssg289
(dp1023
g10
g6
sg7
g6
ssg292
(dp1024
g5
g6
sg7
g6
ssg295
(dp1025
g5
g6
sg7
g6
ssg298
(dp1026
g5
g6
sg7
g6
ssg300
(dp1027
sg302
(dp1028
g10
S'0.02'
p1029
sg7
S'q0.48'
p1030
ssg304
(dp1031
ssS':0129:CTERM'
p1032
(dp1033
g3
(dp1034
g5
g6
sg7
g6
ssg8
(dp1035
g5
g6
sg10
g6
sg7
g6
ssg11
(dp1036
g5
g6
sg7
g6
ssg13
(dp1037
g7
g6
ssg15
(dp1038
g10
g6
sg7
g6
ssg17
(dp1039
g5
g6
sg7
g6
ssg19
(dp1040
g10
g6
sg7
g6
ssg21
(dp1041
g5
g6
sg10
g6
ssg23
(dp1042
g7
g6
ssg25
(dp1043
g7
g6
ssg27
(dp1044
g5
g6
sg10
g6
sg7
g6
ssg29
(dp1045
g5
g6
sg7
g6
ssg31
(dp1046
g10
g6
sg7
g6
ssg33
(dp1047
g5
g6
sg7
g6
ssg35
(dp1048
g5
g6
sg7
g6
ssg37
(dp1049
g5
g6
sg7
g6
ssg39
(dp1050
g5
g6
sg7
g6
ssg41
(dp1051
g7
g6
ssg43
(dp1052
g7
g6
ssg45
(dp1053
g5
g6
sg7
g6
ssg47
(dp1054
g5
g6
sg7
g6
ssg49
(dp1055
g5
g6
sg7
g6
ssg51
(dp1056
g5
g6
sg7
g6
ssg53
(dp1057
g10
g6
sg7
g6
ssg55
(dp1058
sg57
(dp1059
g10
g6
sg7
g6
ssg59
(dp1060
g7
g6
ssg61
(dp1061
g5
g6
sg7
g6
ssg63
(dp1062
g10
g6
sg7
g6
ssg65
(dp1063
g7
g6
ssg67
(dp1064
g5
g6
sg7
g6
ssg69
(dp1065
sg71
(dp1066
g5
g6
sg10
g6
sg7
g6
ssg73
(dp1067
g5
g6
sg7
g6
ssg75
(dp1068
g5
g6
sg10
g6
sg7
g6
ssg77
(dp1069
g5
g6
sg7
g6
ssg79
(dp1070
g5
g6
sg7
g6
ssg81
(dp1071
g5
g6
sg10
g6
sg7
g6
ssg83
(dp1072
g5
g6
sg10
g6
sg7
g6
ssg85
(dp1073
g5
g6
sg7
g6
ssg87
(dp1074
g5
g6
sg7
g6
ssg89
(dp1075
g5
g6
sg10
g6
sg7
g6
ssg91
(dp1076
g5
g6
sg10
g6
sg7
g6
ssg93
(dp1077
g5
g6
sg10
g6
sg7
g6
ssg95
(dp1078
g5
g6
sg10
g6
sg7
g6
ssg97
(dp1079
g7
g6
ssg99
(dp1080
g5
g6
sg7
g6
ssg101
(dp1081
g10
g6
sg7
g6
ssg103
(dp1082
g5
g6
sg7
g6
ssg105
(dp1083
g10
g6
sg7
g6
ssg107
(dp1084
g5
g6
sg10
g6
sg7
g6
ssg109
(dp1085
g10
g6
sg7
g6
ssg111
(dp1086
g7
g6
ssg113
(dp1087
g5
g6
sg7
g6
ssg115
(dp1088
g5
g6
sg7
g6
ssg117
(dp1089
g5
g6
sg10
g6
sg7
g6
ssg119
(dp1090
g10
g6
ssg121
(dp1091
g10
S'0.02'
p1092
sg7
S'>0.4;<0.7'
p1093
ssg123
(dp1094
sg125
(dp1095
g7
g6
ssg127
(dp1096
sg129
(dp1097
g5
g6
sg10
S'0.02;-0.03'
p1098
sg7
S'-0.49'
p1099
ssg131
(dp1100
g10
S'0.02'
p1101
ssg133
(dp1102
g7
g6
ssg135
(dp1103
g7
g6
ssg137
(dp1104
g7
g6
ssg139
(dp1105
g7
g6
ssg141
(dp1106
g7
g6
ssg143
(dp1107
g7
g6
ssg145
(dp1108
g5
g6
sg7
g6
ssg148
(dp1109
g5
g6
sg7
g6
ssg151
(dp1110
g5
g6
sg10
g6
sg7
g6
ssg154
(dp1111
g5
g6
sg10
g6
sg7
g6
ssg156
(dp1112
g5
g6
ssg158
(dp1113
g5
g6
sg7
g6
ssg160
(dp1114
g5
g6
sg7
g6
ssg162
(dp1115
g5
g6
sg7
g6
ssg164
(dp1116
g7
g6
ssg166
(dp1117
g5
g6
sg7
g6
ssg168
(dp1118
g5
g6
sg7
g6
ssg171
(dp1119
g5
g6
sg10
g6
sg7
g6
ssg173
(dp1120
g5
g6
sg7
g6
ssg175
(dp1121
g7
g6
ssg177
(dp1122
g5
g6
sg10
g6
sg7
g6
ssg179
(dp1123
g5
g6
sg7
g6
ssg181
(dp1124
g5
g6
sg7
g6
ssg183
(dp1125
g5
g6
sg7
g6
ssg185
(dp1126
g5
g6
sg10
g6
sg7
g6
ssg187
(dp1127
g5
g6
sg7
g6
ssg189
(dp1128
g5
g6
sg10
g6
sg7
g6
ssg191
(dp1129
sg193
(dp1130
g5
g6
sg10
g6
sg7
g6
ssg196
(dp1131
g5
g6
sg10
g6
sg7
g6
ssg198
(dp1132
g5
g6
sg7
g6
ssg201
(dp1133
g5
g6
sg10
g6
sg7
g6
ssg203
(dp1134
g5
g6
sg10
g6
sg7
g6
ssg205
(dp1135
g5
g6
sg10
g6
sg7
g6
ssg207
(dp1136
g5
g6
sg7
g6
ssg209
(dp1137
g7
g6
ssg212
(dp1138
g5
g6
sg7
g6
ssg214
(dp1139
g5
g6
sg7
g6
ssg216
(dp1140
g5
g6
sg10
g6
sg7
g6
ssg218
(dp1141
g10
g6
sg7
g6
ssg220
(dp1142
g5
g6
sg10
g6
sg7
g6
ssg222
(dp1143
g5
g6
sg7
g6
ssg224
(dp1144
g7
g6
ssg226
(dp1145
g5
g6
sg7
g6
ssg230
(dp1146
g7
g6
ssg233
(dp1147
g5
g6
sg7
g6
ssg237
(dp1148
g5
g6
sg10
g6
sg7
g6
ssg242
(dp1149
g10
g6
sg7
g6
ssg247
(dp1150
g5
S'q>0.03;<0.06'
p1151
sg10
g6
sg7
g6
ssg252
(dp1152
g5
S'q>0.06;<0.1'
p1153
sg7
g6
ssg256
(dp1154
g7
S'q0.13'
p1155
ssg261
(dp1156
g5
g6
sg7
g6
ssg265
(dp1157
g5
g6
sg7
g6
ssg267
(dp1158
g5
g6
sg7
g6
ssg271
(dp1159
g5
g6
sg7
g6
ssg275
(dp1160
g5
g6
sg10
g6
sg7
g6
ssg280
(dp1161
sg282
(dp1162
g7
g6
ssg285
(dp1163
g5
g6
sg7
g6
ssg289
(dp1164
g10
g6
sg7
g6
ssg292
(dp1165
g5
g6
sg10
g6
sg7
g6
ssg295
(dp1166
g5
g6
sg10
g6
sg7
g6
ssg298
(dp1167
g5
g6
sg7
g6
ssg300
(dp1168
g10
g6
sg7
g6
ssg302
(dp1169
g5
g6
sg10
g6
sg7
g6
ssg304
(dp1170
g5
g6
sg7
g6
sssS':0007:GLU'
p1171
(dp1172
g3
(dp1173
g5
g6
sg7
g6
ssg8
(dp1174
g5
g6
sg10
g6
sg7
g6
ssg11
(dp1175
g5
g6
sg7
g6
ssg13
(dp1176
g7
g6
ssg15
(dp1177
g10
g6
sg7
g6
ssg17
(dp1178
g5
g6
sg7
g6
ssg19
(dp1179
g10
g6
sg7
g6
ssg21
(dp1180
g5
g6
sg10
g6
ssg23
(dp1181
g7
g6
ssg25
(dp1182
g7
g6
ssg27
(dp1183
g5
g6
sg10
g6
sg7
g6
ssg29
(dp1184
g5
g6
sg7
g6
ssg31
(dp1185
g10
g6
sg7
g6
ssg33
(dp1186
g5
g6
sg7
g6
ssg35
(dp1187
g5
g6
sg7
g6
ssg37
(dp1188
g5
g6
sg7
g6
ssg39
(dp1189
g5
g6
sg7
g6
ssg41
(dp1190
g7
g6
ssg43
(dp1191
g7
g6
ssg45
(dp1192
g5
g6
sg7
g6
ssg47
(dp1193
g5
g6
sg7
g6
ssg49
(dp1194
g5
g6
sg7
g6
ssg51
(dp1195
g5
g6
sg7
g6
ssg53
(dp1196
g10
g6
sg7
g6
ssg55
(dp1197
sg57
(dp1198
g10
g6
sg7
g6
ssg59
(dp1199
g7
g6
ssg61
(dp1200
g5
g6
sg7
g6
ssg63
(dp1201
g10
g6
sg7
g6
ssg65
(dp1202
g7
g6
ssg67
(dp1203
g5
g6
sg7
g6
ssg69
(dp1204
sg71
(dp1205
g5
g6
sg10
g6
sg7
g6
ssg73
(dp1206
g5
g6
sg7
g6
ssg75
(dp1207
g5
g6
sg10
g6
sg7
g6
ssg77
(dp1208
g5
g6
sg7
g6
ssg79
(dp1209
g5
g6
sg7
g6
ssg81
(dp1210
g5
g6
sg10
g6
sg7
g6
ssg83
(dp1211
g5
g6
sg10
g6
ssg85
(dp1212
sg87
(dp1213
g7
S'>0.08;<0.2'
p1214
ssg89
(dp1215
g5
g6
sg10
g6
sg7
g6
ssg91
(dp1216
g5
g6
sg10
g6
sg7
g6
ssg93
(dp1217
g5
g6
sg10
g6
sg7
g6
ssg95
(dp1218
g5
g6
sg10
g6
sg7
g6
ssg97
(dp1219
g7
g6
ssg99
(dp1220
g5
g6
sg7
g6
ssg101
(dp1221
g10
g6
sg7
g6
ssg103
(dp1222
g5
g6
sg7
g6
ssg105
(dp1223
g10
g6
sg7
g6
ssg107
(dp1224
g5
g6
sg10
g6
sg7
g6
ssg109
(dp1225
g10
g6
sg7
g6
ssg111
(dp1226
g7
g6
ssg113
(dp1227
g5
g6
sg7
g6
ssg115
(dp1228
g5
g6
sg7
g6
ssg117
(dp1229
g5
g6
sg10
g6
sg7
g6
ssg119
(dp1230
g10
g6
ssg121
(dp1231
g5
g6
sg10
g6
sg7
g6
ssg123
(dp1232
g5
g6
sg10
g6
sg7
g6
ssg125
(dp1233
g5
g6
sg10
g6
sg7
g6
ssg127
(dp1234
g5
g6
sg7
g6
ssg129
(dp1235
g5
g6
sg7
g6
ssg131
(dp1236
g10
g6
sg7
g6
ssg133
(dp1237
g5
g6
sg7
g6
ssg135
(dp1238
g5
g6
sg10
g6
sg7
g6
ssg137
(dp1239
g5
g6
sg10
g6
sg7
g6
ssg139
(dp1240
g5
g6
sg10
g6
sg7
g6
ssg141
(dp1241
g5
g6
sg7
g6
ssg143
(dp1242
g7
g6
ssg145
(dp1243
g5
g6
sg7
g6
ssg148
(dp1244
g5
g6
sg7
g6
ssg151
(dp1245
g5
g6
sg10
g6
sg7
g6
ssg154
(dp1246
g5
g6
sg10
g6
sg7
g6
ssg156
(dp1247
g5
g6
sg7
g6
ssg158
(dp1248
g5
g6
sg7
g6
ssg160
(dp1249
g5
g6
sg7
g6
ssg162
(dp1250
g5
g6
sg7
g6
ssg164
(dp1251
g5
g6
sg7
g6
ssg166
(dp1252
g5
g6
sg7
g6
ssg168
(dp1253
g5
g6
sg7
g6
ssg171
(dp1254
g5
g6
sg10
g6
sg7
g6
ssg173
(dp1255
g5
g6
sg7
g6
ssg175
(dp1256
g5
g6
sg7
g6
ssg177
(dp1257
g5
g6
sg10
g6
sg7
g6
ssg179
(dp1258
g5
g6
sg7
g6
ssg181
(dp1259
g5
g6
sg7
g6
ssg183
(dp1260
g5
g6
sg7
g6
ssg185
(dp1261
g5
g6
sg10
g6
sg7
g6
ssg187
(dp1262
g5
g6
sg7
g6
ssg189
(dp1263
g5
S'q>0.03;<0.06'
p1264
sg10
g6
sg7
S'>0.1;<0.2'
p1265
ssg191
(dp1266
sg193
(dp1267
g5
S'>0.06;<0.12'
p1268
sg10
S'0.03'
p1269
sg7
S'>-0.5;<-0.3'
p1270
ssg196
(dp1271
sg198
(dp1272
g5
S'>-0.1;<-0.05'
p1273
sg7
S'>0.1;<0.2'
p1274
ssg201
(dp1275
g5
S'q>-0.06;<-0.03'
p1276
sg10
S'0.04'
p1277
sg7
S'>0.1;<0.25'
p1278
ssg203
(dp1279
g5
S'>0.5;<0.7'
p1280
sg10
S'0.02;0.02'
p1281
sg7
S'>0.3;<0.5'
p1282
ssg205
(dp1283
g5
S'q>0.04;<0.8'
p1284
sg10
S'<-0.06;>-0.12'
p1285
sg7
S'>0.2;<0.35'
p1286
ssg207
(dp1287
g7
S'>0.2;<0.35'
p1288
ssg209
(dp1289
g7
g6
ssg212
(dp1290
g5
g6
sg7
g6
ssg214
(dp1291
g5
g6
sg7
g6
ssg216
(dp1292
g5
g6
sg7
g6
ssg218
(dp1293
g10
g6
sg7
g6
ssg220
(dp1294
g5
g6
sg10
g6
sg7
g6
ssg222
(dp1295
g5
g6
sg7
g6
ssg224
(dp1296
g7
g6
ssg226
(dp1297
g5
g6
sg7
g6
ssg230
(dp1298
g7
g6
ssg233
(dp1299
g5
g6
sg7
g6
ssg237
(dp1300
g5
g6
sg10
g6
sg7
g6
ssg242
(dp1301
g5
g6
sg10
S'>0.02;<0.05'
p1302
ssg247
(dp1303
g10
S'>0.01;<0.03'
p1304
sg7
g6
ssg252
(dp1305
g7
g6
ssg256
(dp1306
g5
g6
sg7
g6
ssg261
(dp1307
g5
g6
sg7
g6
ssg265
(dp1308
g7
g6
ssg267
(dp1309
g5
g6
sg7
g6
ssg271
(dp1310
g5
g6
sg7
g6
ssg275
(dp1311
g5
g6
sg10
g6
sg7
g6
ssg280
(dp1312
sg282
(dp1313
g7
g6
ssg285
(dp1314
g5
g6
sg7
g6
ssg289
(dp1315
g10
g6
sg7
g6
ssg292
(dp1316
g5
g6
sg10
g6
sg7
g6
ssg295
(dp1317
g5
g6
sg10
g6
sg7
g6
ssg298
(dp1318
g5
g6
sg7
g6
ssg300
(dp1319
g10
g6
sg7
g6
ssg302
(dp1320
g5
g6
sg10
g6
sg7
g6
ssg304
(dp1321
g5
g6
sg7
g6
sssS':0101:ASP'
p1322
(dp1323
g3
(dp1324
g5
S'q-0.03'
p1325
sg7
g6
ssg8
(dp1326
g5
g6
sg10
g6
sg7
g6
ssg11
(dp1327
g5
g6
sg7
g6
ssg13
(dp1328
g7
g6
ssg15
(dp1329
g10
g6
sg7
g6
ssg17
(dp1330
g5
g6
sg7
g6
ssg19
(dp1331
g10
g6
sg7
g6
ssg21
(dp1332
g5
g6
sg10
g6
ssg23
(dp1333
g7
g6
ssg25
(dp1334
g7
g6
ssg27
(dp1335
g5
g6
sg10
g6
sg7
g6
ssg29
(dp1336
g5
g6
sg7
g6
ssg31
(dp1337
g10
g6
sg7
g6
ssg33
(dp1338
g5
g6
sg7
g6
ssg35
(dp1339
g5
g6
sg7
g6
ssg37
(dp1340
g5
g6
sg7
g6
ssg39
(dp1341
g5
S'0.18'
p1342
ssg41
(dp1343
g7
S'-0.18'
p1344
ssg43
(dp1345
g7
S'0.4'
p1346
ssg45
(dp1347
g5
S'-0.03'
p1348
sg7
S'-0.18'
p1349
ssg47
(dp1350
g5
S'0.05'
p1351
ssg49
(dp1352
g5
S'0.06'
p1353
ssg51
(dp1354
g5
S'0.06'
p1355
sg7
S'0.7'
p1356
ssg53
(dp1357
g10
g6
ssg55
(dp1358
sg57
(dp1359
g10
S'-0.01'
p1360
sg7
S'q-0.1'
p1361
ssg59
(dp1362
g7
S'-0.12'
p1363
ssg61
(dp1364
g7
g6
ssg63
(dp1365
sg65
(dp1366
g7
g6
ssg67
(dp1367
g5
g6
sg7
g6
ssg69
(dp1368
sg71
(dp1369
g5
g6
sg10
g6
sg7
g6
ssg73
(dp1370
g7
g6
ssg75
(dp1371
g5
g6
sg10
g6
sg7
g6
ssg77
(dp1372
g5
g6
sg7
g6
ssg79
(dp1373
g5
g6
sg7
g6
ssg81
(dp1374
g5
g6
sg10
g6
sg7
g6
ssg83
(dp1375
g5
g6
sg10
g6
sg7
g6
ssg85
(dp1376
g5
g6
sg7
g6
ssg87
(dp1377
g5
g6
sg7
g6
ssg89
(dp1378
g5
g6
sg10
g6
sg7
g6
ssg91
(dp1379
g5
g6
sg10
g6
sg7
g6
ssg93
(dp1380
g5
g6
sg10
g6
sg7
g6
ssg95
(dp1381
g5
g6
sg10
g6
sg7
g6
ssg97
(dp1382
g7
g6
ssg99
(dp1383
g5
g6
sg7
g6
ssg101
(dp1384
g10
g6
sg7
g6
ssg103
(dp1385
g5
g6
sg7
g6
ssg105
(dp1386
g10
g6
sg7
g6
ssg107
(dp1387
g5
g6
sg10
g6
sg7
g6
ssg109
(dp1388
g10
g6
sg7
g6
ssg111
(dp1389
g7
g6
ssg113
(dp1390
g5
g6
sg7
g6
ssg115
(dp1391
g5
g6
sg7
g6
ssg117
(dp1392
g5
g6
sg10
g6
sg7
g6
ssg119
(dp1393
g10
g6
ssg121
(dp1394
g5
g6
sg10
g6
sg7
g6
ssg123
(dp1395
g5
g6
sg10
g6
sg7
g6
ssg125
(dp1396
g5
g6
sg10
g6
sg7
g6
ssg127
(dp1397
g5
g6
sg7
g6
ssg129
(dp1398
g5
g6
sg7
g6
ssg131
(dp1399
g10
g6
sg7
g6
ssg133
(dp1400
g5
g6
sg7
g6
ssg135
(dp1401
g5
g6
sg10
g6
sg7
g6
ssg137
(dp1402
g5
g6
sg10
g6
sg7
g6
ssg139
(dp1403
g5
g6
sg10
g6
sg7
g6
ssg141
(dp1404
g5
g6
sg7
g6
ssg143
(dp1405
g7
g6
ssg145
(dp1406
g5
g6
sg7
g6
ssg148
(dp1407
g5
g6
sg7
g6
ssg151
(dp1408
g5
g6
sg10
g6
sg7
g6
ssg154
(dp1409
g5
g6
sg10
g6
sg7
g6
ssg156
(dp1410
g5
g6
sg7
g6
ssg158
(dp1411
g5
g6
sg7
g6
ssg160
(dp1412
g5
g6
sg7
g6
ssg162
(dp1413
g5
g6
sg7
g6
ssg164
(dp1414
g5
g6
sg7
g6
ssg166
(dp1415
g5
g6
sg7
g6
ssg168
(dp1416
g5
g6
sg7
g6
ssg171
(dp1417
g5
g6
sg10
g6
sg7
g6
ssg173
(dp1418
g5
g6
sg7
g6
ssg175
(dp1419
g5
g6
sg7
g6
ssg177
(dp1420
g5
g6
sg10
g6
sg7
g6
ssg179
(dp1421
g5
g6
sg7
g6
ssg181
(dp1422
g5
g6
sg7
g6
ssg183
(dp1423
g5
g6
sg7
g6
ssg185
(dp1424
g5
g6
sg10
g6
sg7
g6
ssg187
(dp1425
g5
g6
sg7
g6
ssg189
(dp1426
g5
g6
sg10
g6
sg7
g6
ssg191
(dp1427
sg193
(dp1428
g5
g6
sg10
g6
sg7
g6
ssg196
(dp1429
g5
g6
sg10
g6
sg7
g6
ssg198
(dp1430
g5
g6
sg7
g6
ssg201
(dp1431
g5
g6
sg10
g6
sg7
g6
ssg203
(dp1432
g5
g6
sg10
g6
sg7
g6
ssg205
(dp1433
g5
g6
sg10
g6
sg7
g6
ssg207
(dp1434
g5
g6
sg7
g6
ssg209
(dp1435
g7
g6
ssg212
(dp1436
g5
g6
sg7
g6
ssg214
(dp1437
g5
g6
ssg216
(dp1438
g5
g6
sg10
g6
sg7
g6
ssg218
(dp1439
g10
g6
ssg220
(dp1440
g5
g6
ssg222
(dp1441
g5
g6
ssg224
(dp1442
g7
S'q0.1'
p1443
ssg226
(dp1444
g5
g6
sg7
g6
ssg230
(dp1445
g7
g6
ssg233
(dp1446
g5
g6
sg7
g6
ssg237
(dp1447
g5
g6
sg10
g6
sg7
g6
ssg242
(dp1448
g5
g6
sg10
g6
sg7
g6
ssg247
(dp1449
g5
g6
sg10
g6
sg7
g6
ssg252
(dp1450
g5
g6
sg7
g6
ssg256
(dp1451
g5
g6
sg7
g6
ssg261
(dp1452
g5
g6
sg7
g6
ssg265
(dp1453
g5
g6
sg7
g6
ssg267
(dp1454
g5
g6
sg7
g6
ssg271
(dp1455
g5
g6
sg7
g6
ssg275
(dp1456
g5
g6
sg10
g6
sg7
g6
ssg280
(dp1457
sg282
(dp1458
g7
S'q-0.32'
p1459
ssg285
(dp1460
sg289
(dp1461
g10
S'0.04'
p1462
ssg292
(dp1463
g10
S'0.01'
p1464
ssg295
(dp1465
g10
S'0.02'
p1466
ssg298
(dp1467
sg300
(dp1468
g10
S'-0.02'
p1469
sg7
S'0.4'
p1470
ssg302
(dp1471
g5
S'q-0.05'
p1472
sg10
S'-0.04'
p1473
sg7
S'-0.41'
p1474
ssg304
(dp1475
ss.