(dp0
S':0015:HIS'
p1
(dp2
S':0115'
p3
(dp4
S'H'
p5
S'absent'
p6
sS'N'
p7
g6
ssS':0114'
p8
(dp9
g5
g6
sg7
g6
ssS':0117'
p10
(dp11
g5
g6
sg7
g6
ssS':0116'
p12
(dp13
g7
g6
ssS':0069'
p14
(dp15
g7
g6
ssS':0068'
p16
(dp17
g5
g6
sg7
g6
ssS':0113'
p18
(dp19
g7
g6
ssS':0112'
p20
(dp21
g5
g6
ssS':0065'
p22
(dp23
g7
g6
ssS':0064'
p24
(dp25
g7
g6
ssS':0067'
p26
(dp27
g5
g6
sg7
g6
ssS':0066'
p28
(dp29
g5
g6
sg7
g6
ssS':0061'
p30
(dp31
g7
g6
ssS':0060'
p32
(dp33
g5
g6
sg7
g6
ssS':0063'
p34
(dp35
g5
g6
sg7
g6
ssS':0062'
p36
(dp37
g5
g6
sg7
g6
ssS':0103'
p38
(dp39
g5
g6
sg7
g6
ssS':0106'
p40
(dp41
g7
g6
ssS':0107'
p42
(dp43
g7
g6
ssS':0104'
p44
(dp45
g5
g6
sg7
g6
ssS':0105'
p46
(dp47
g5
g6
sg7
g6
ssS':0102'
p48
(dp49
g5
g6
sg7
g6
ssS':0100'
p50
(dp51
g5
g6
sg7
g6
ssS':0078'
p52
(dp53
g7
g6
ssS':0079'
p54
(dp55
sS':0076'
p56
(dp57
g7
g6
ssS':0077'
p58
(dp59
g7
g6
ssS':0074'
p60
(dp61
g5
g6
sg7
g6
ssS':0075'
p62
(dp63
g7
g6
ssS':0072'
p64
(dp65
g7
g6
ssS':0073'
p66
(dp67
g5
g6
sg7
g6
ssS':0070'
p68
(dp69
sS':0071'
p70
(dp71
g5
g6
sg7
g6
ssS':0108'
p72
(dp73
g5
g6
sg7
g6
ssS':0109'
p74
(dp75
g5
g6
sg7
g6
ssS':0049'
p76
(dp77
g5
g6
sg7
g6
ssS':0048'
p78
(dp79
g5
g6
sg7
g6
ssS':0043'
p80
(dp81
g5
g6
sg7
g6
ssS':0042'
p82
(dp83
g5
g6
sg7
g6
ssS':0041'
p84
(dp85
g5
g6
sg7
g6
ssS':0040'
p86
(dp87
g5
g6
sg7
g6
ssS':0047'
p88
(dp89
g5
g6
sg7
g6
ssS':0046'
p90
(dp91
g5
g6
sg7
g6
ssS':0045'
p92
(dp93
g5
g6
sg7
g6
ssS':0044'
p94
(dp95
g5
g6
sg7
g6
ssS':0054'
p96
(dp97
g7
g6
ssS':0055'
p98
(dp99
g5
g6
sg7
g6
ssS':0056'
p100
(dp101
g7
g6
ssS':0057'
p102
(dp103
g5
g6
sg7
g6
ssS':0050'
p104
(dp105
g7
g6
ssS':0051'
p106
(dp107
g5
g6
sg7
g6
ssS':0052'
p108
(dp109
g7
g6
ssS':0053'
p110
(dp111
g7
g6
ssS':0111'
p112
(dp113
g5
g6
sg7
g6
ssS':0058'
p114
(dp115
g5
g6
sg7
g6
ssS':0059'
p116
(dp117
g5
g6
sg7
g6
ssS':0110'
p118
(dp119
sS':0128'
p120
(dp121
g5
g6
sg7
g6
ssS':0129'
p122
(dp123
g5
g6
sg7
g6
ssS':0124'
p124
(dp125
g5
g6
sg7
g6
ssS':0125'
p126
(dp127
g5
g6
sg7
g6
ssS':0126'
p128
(dp129
g5
g6
sg7
g6
ssS':0127'
p130
(dp131
g7
g6
ssS':0120'
p132
(dp133
g5
g6
sg7
g6
ssS':0121'
p134
(dp135
g5
g6
sg7
g6
ssS':0122'
p136
(dp137
g5
g6
sg7
g6
ssS':0123'
p138
(dp139
g5
g6
sg7
g6
ssS':0119'
p140
(dp141
g5
g6
sg7
g6
ssS':0118'
p142
(dp143
g7
g6
ssS':0021'
p144
(dp145
g5
S'q0.03'
p146
ssS':0020'
p147
(dp148
g5
g6
sg7
S'0.39'
p149
ssS':0023'
p150
(dp151
g7
S'q0.1'
p152
ssS':0022'
p153
(dp154
g7
g6
ssS':0025'
p155
(dp156
g5
g6
ssS':0024'
p157
(dp158
g5
g6
sg7
g6
ssS':0027'
p159
(dp160
g7
g6
ssS':0026'
p161
(dp162
g5
g6
sg7
S'q-0.1'
p163
ssS':0029'
p164
(dp165
g7
g6
ssS':0028'
p166
(dp167
g5
g6
ssS':0032'
p168
(dp169
g5
g6
sg7
g6
ssS':0033'
p170
(dp171
g5
g6
sg7
g6
ssS':0030'
p172
(dp173
g5
g6
sg7
g6
ssS':0031'
p174
(dp175
g5
g6
sg7
g6
ssS':0036'
p176
(dp177
g5
g6
sg7
g6
ssS':0037'
p178
(dp179
g5
g6
sg7
g6
ssS':0034'
p180
(dp181
g5
g6
sg7
g6
ssS':0035'
p182
(dp183
g5
g6
sg7
g6
ssS':0038'
p184
(dp185
g5
g6
sg7
g6
ssS':0039'
p186
(dp187
g5
g6
sg7
g6
ssS':0009'
p188
(dp189
sS':0008'
p190
(dp191
g7
g6
ssS':0007'
p192
(dp193
g5
g6
sg7
g6
ssS':0006'
p194
(dp195
g5
g6
sg7
S'q-0.1'
p196
ssS':0005'
p197
(dp198
g7
g6
ssS':0004'
p199
(dp200
g5
g6
sg7
g6
ssS':0003'
p201
(dp202
g7
g6
ssS':0002'
p203
(dp204
g5
g6
sg7
g6
ssS':0087'
p205
(dp206
g7
S'-0.17'
p207
ssS':0086'
p208
(dp209
sS':0085'
p210
(dp211
sS':0084'
p212
(dp213
g5
g6
sg7
g6
ssS':0083'
p214
(dp215
g7
g6
ssS':0082'
p216
(dp217
g5
g6
sg7
g6
ssS':0081'
p218
(dp219
g5
g6
sg7
g6
ssS':0080'
p220
(dp221
g7
g6
ssS':0089'
p222
(dp223
g5
S'-0.05'
p224
sg7
S'q-0.15'
p225
ssS':0088'
p226
(dp227
g7
S'-0.3'
p228
ssS':0018'
p229
(dp230
g5
S'-0.03'
p231
sg7
S'-0.2'
p232
ssS':0019'
p233
(dp234
g5
S'0.12'
p235
sg7
S'0.15'
p236
ssS':0010'
p237
(dp238
g5
S'q-0.04'
p239
sg7
S'-0.37'
p240
ssS':0011'
p241
(dp242
g5
S'-0.05'
p243
sg7
S'0.45'
p244
ssS':0012'
p245
(dp246
g5
S'-0.18'
p247
sg7
S'-2.33'
p248
ssS':0013'
p249
(dp250
g5
S'-0.12'
p251
sg7
S'-1.26'
p252
ssS':0014'
p253
(dp254
g5
S'-0.26'
p255
sg7
S'1.6'
p256
ssS':0015'
p257
(dp258
sS':0016'
p259
(dp260
g5
S'0.06'
p261
sg7
S'0.1'
p262
ssS':0017'
p263
(dp264
g5
S'0.07'
p265
sg7
S'-0.14'
p266
ssS':0090'
p267
(dp268
g5
S'q-0.12'
p269
sg7
S'-0.35'
p270
ssS':0091'
p271
(dp272
g5
S'-0.05'
p273
ssS':0092'
p274
(dp275
g7
S'q-0.3'
p276
ssS':0093'
p277
(dp278
g5
S'q-0.06'
p279
sg7
S'q-0.3'
p280
ssS':0094'
p281
(dp282
g7
S'-0.15'
p283
ssS':0095'
p284
(dp285
g5
S'q0.05'
p286
ssS':0096'
p287
(dp288
g5
S'0.07'
p289
ssS':0097'
p290
(dp291
sS':0098'
p292
(dp293
sS':0099'
p294
(dp295
g5
g6
ssS':0101'
p296
(dp297
g5
g6
sg7
g6
sssS':0119:ASP'
p298
(dp299
g3
(dp300
g5
g6
sg7
g6
ssg8
(dp301
g5
g6
ssg10
(dp302
g5
g6
ssg12
(dp303
g7
S'q>-0.2;<-0.1'
p304
ssg14
(dp305
g7
g6
ssg16
(dp306
g5
g6
sg7
g6
ssg18
(dp307
g7
g6
ssg20
(dp308
g5
g6
ssg22
(dp309
g7
g6
ssg24
(dp310
g7
g6
ssg26
(dp311
g5
g6
sg7
g6
ssg28
(dp312
g5
g6
sg7
g6
ssg30
(dp313
g7
g6
ssg32
(dp314
g5
g6
sg7
g6
ssg34
(dp315
g5
g6
sg7
g6
ssg36
(dp316
g5
g6
sg7
g6
ssg38
(dp317
g5
g6
sg7
g6
ssg40
(dp318
g7
g6
ssg42
(dp319
g7
g6
ssg44
(dp320
g5
g6
sg7
g6
ssg46
(dp321
g5
g6
sg7
g6
ssg48
(dp322
g5
g6
sg7
g6
ssg50
(dp323
g5
g6
sg7
g6
ssg52
(dp324
g7
g6
ssg54
(dp325
sg56
(dp326
g7
g6
ssg58
(dp327
g7
g6
ssg60
(dp328
g5
g6
sg7
g6
ssg62
(dp329
g7
g6
ssg64
(dp330
g7
g6
ssg66
(dp331
g5
g6
sg7
g6
ssg68
(dp332
sg70
(dp333
g5
g6
sg7
g6
ssg72
(dp334
g5
g6
sg7
g6
ssg74
(dp335
g5
g6
sg7
g6
ssg76
(dp336
g5
g6
sg7
g6
ssg78
(dp337
g5
g6
sg7
g6
ssg80
(dp338
g5
g6
sg7
g6
ssg82
(dp339
g5
g6
sg7
g6
ssg84
(dp340
g5
g6
sg7
g6
ssg86
(dp341
g5
g6
sg7
g6
ssg88
(dp342
g5
g6
sg7
g6
ssg90
(dp343
g5
g6
sg7
g6
ssg92
(dp344
g5
g6
sg7
g6
ssg94
(dp345
g5
g6
sg7
g6
ssg96
(dp346
g7
g6
ssg98
(dp347
g5
g6
sg7
g6
ssg100
(dp348
g7
g6
ssg102
(dp349
g5
g6
sg7
g6
ssg104
(dp350
g7
g6
ssg106
(dp351
g5
g6
sg7
g6
ssg108
(dp352
g7
g6
ssg110
(dp353
g7
g6
ssg112
(dp354
g5
g6
sg7
g6
ssg114
(dp355
g5
g6
sg7
g6
ssg116
(dp356
g5
g6
sg7
g6
ssg118
(dp357
sg120
(dp358
g7
g6
ssg122
(dp359
g7
g6
ssg124
(dp360
g5
S'0.05'
p361
sg7
g6
ssg126
(dp362
g5
S'0.05'
p363
ssg128
(dp364
g5
g6
ssg130
(dp365
sg132
(dp366
g5
S'-0.1'
p367
sg7
g6
ssg134
(dp368
g5
S'-0.08'
p369
sg7
S'-0.6'
p370
ssg136
(dp371
g5
S'0.08'
p372
sg7
S'0.7'
p373
ssg138
(dp374
g5
S'-0.1'
p375
sg7
S'-0.64'
p376
ssg140
(dp377
sg142
(dp378
g7
S'q0.17'
p379
ssg144
(dp380
g5
g6
sg7
g6
ssg147
(dp381
g5
g6
sg7
g6
ssg150
(dp382
g5
g6
sg7
g6
ssg153
(dp383
g5
g6
sg7
g6
ssg155
(dp384
g5
g6
sg7
g6
ssg157
(dp385
g5
g6
sg7
g6
ssg159
(dp386
g5
g6
sg7
g6
ssg161
(dp387
g5
g6
sg7
g6
ssg164
(dp388
g5
g6
sg7
g6
ssg166
(dp389
g5
g6
sg7
g6
ssg168
(dp390
g7
g6
ssg170
(dp391
g7
g6
ssg172
(dp392
g5
g6
sg7
g6
ssg174
(dp393
g5
g6
sg7
S'q0.1'
p394
ssg176
(dp395
g5
g6
sg7
g6
ssg178
(dp396
g5
g6
sg7
g6
ssg180
(dp397
g7
g6
ssg182
(dp398
g5
g6
sg7
g6
ssg184
(dp399
g5
g6
sg7
g6
ssg186
(dp400
g5
g6
sg7
g6
ssg188
(dp401
sg190
(dp402
g5
g6
sg7
g6
ssg192
(dp403
g5
g6
sg7
g6
ssg194
(dp404
g5
g6
sg7
g6
ssg197
(dp405
g5
g6
sg7
g6
ssg199
(dp406
g5
g6
sg7
g6
ssg201
(dp407
g5
g6
sg7
g6
ssg203
(dp408
g5
g6
sg7
g6
ssg205
(dp409
g7
g6
ssg208
(dp410
g5
g6
sg7
g6
ssg210
(dp411
g5
g6
sg7
g6
ssg212
(dp412
g5
g6
sg7
g6
ssg214
(dp413
g7
g6
ssg216
(dp414
g5
g6
sg7
g6
ssg218
(dp415
g5
g6
sg7
g6
ssg220
(dp416
g7
g6
ssg222
(dp417
g5
g6
sg7
g6
ssg226
(dp418
g7
g6
ssg229
(dp419
g5
g6
sg7
g6
ssg233
(dp420
g5
g6
sg7
g6
ssg237
(dp421
g5
g6
sg7
g6
ssg241
(dp422
g5
g6
sg7
g6
ssg245
(dp423
g5
g6
sg7
g6
ssg249
(dp424
g5
g6
sg7
g6
ssg253
(dp425
g5
g6
sg7
g6
ssg257
(dp426
g5
g6
sg7
g6
ssg259
(dp427
g5
g6
sg7
g6
ssg263
(dp428
g5
g6
sg7
g6
ssg267
(dp429
g5
g6
sg7
g6
ssg271
(dp430
g5
g6
sg7
g6
ssg274
(dp431
g7
g6
ssg277
(dp432
g5
g6
sg7
g6
ssg281
(dp433
g7
g6
ssg284
(dp434
g5
g6
sg7
g6
ssg287
(dp435
g5
g6
sg7
g6
ssg290
(dp436
g5
g6
sg7
g6
ssg292
(dp437
g7
g6
ssg294
(dp438
g5
g6
sg7
g6
ssg296
(dp439
g5
g6
sg7
g6
sssS':0052:ASP'
p440
(dp441
g3
(dp442
g5
g6
sg7
g6
ssg8
(dp443
g5
g6
sg7
S'q0.16'
p444
ssg10
(dp445
g5
g6
sg7
g6
ssg12
(dp446
g7
g6
ssg14
(dp447
g7
S'q0.26'
p448
ssg16
(dp449
g5
g6
sg7
S'q-0.1'
p450
ssg18
(dp451
g7
g6
ssg20
(dp452
sg22
(dp453
sg24
(dp454
sg26
(dp455
g5
g6
sg7
g6
ssg28
(dp456
g5
S'0.14'
p457
sg7
S'q0.24'
p458
ssg30
(dp459
g5
S'-0.17'
p460
sg7
S'q-0.12'
p461
ssg32
(dp462
g5
g6
sg7
S'q0.1'
p463
ssg34
(dp464
g5
S'q0.07'
p465
ssg36
(dp466
g5
S'q-0.08'
p467
sg7
S'q0.5'
p468
ssg38
(dp469
g5
g6
sg7
g6
ssg40
(dp470
g7
S'-0.18'
p471
ssg42
(dp472
sg44
(dp473
g5
g6
sg7
g6
ssg46
(dp474
g7
g6
ssg48
(dp475
g5
g6
sg7
g6
ssg50
(dp476
g5
g6
sg7
g6
ssg52
(dp477
sg54
(dp478
sg56
(dp479
sg58
(dp480
g7
g6
ssg60
(dp481
g7
S'q0.2'
p482
ssg62
(dp483
g7
g6
ssg64
(dp484
g7
S'q-0.3'
p485
ssg66
(dp486
g5
S'0.09'
p487
sg7
S'q-0.2'
p488
ssg68
(dp489
sg70
(dp490
g7
S'q-0.13'
p491
ssg72
(dp492
g7
S'-0.3'
p493
ssg74
(dp494
g5
S'0.14'
p495
sg7
S'0.1'
p496
ssg76
(dp497
g5
g6
ssg78
(dp498
g5
S'q0.03'
p499
sg7
S'0.32'
p500
ssg80
(dp501
g5
S'-0.08'
p502
ssg82
(dp503
g5
g6
sg7
g6
ssg84
(dp504
g5
g6
sg7
g6
ssg86
(dp505
g5
g6
sg7
g6
ssg88
(dp506
g5
S'0.06'
p507
sg7
S'0.3'
p508
ssg90
(dp509
g5
S'q-0.03'
p510
ssg92
(dp511
g5
S'-0.12'
p512
sg7
S'0.86'
p513
ssg94
(dp514
g5
S'q0.06'
p515
sg7
g6
ssg96
(dp516
g7
S'-0.29'
p517
ssg98
(dp518
g5
S'-0.07'
p519
sg7
S'q0.15'
p520
ssg100
(dp521
g7
S'0.24'
p522
ssg102
(dp523
g5
S'q-0.07'
p524
ssg104
(dp525
g7
S'q0.3'
p526
ssg106
(dp527
g5
S'0.16'
p528
sg7
S'0.83'
p529
ssg108
(dp530
sg110
(dp531
g7
S'q-0.5'
p532
ssg112
(dp533
sg114
(dp534
g5
S'q0.13'
p535
sg7
S'0.2'
p536
ssg116
(dp537
g5
S'q0.17'
p538
sg7
S'0.54'
p539
ssg118
(dp540
g7
S'0.12'
p541
ssg120
(dp542
g5
g6
sg7
g6
ssg122
(dp543
g5
g6
sg7
g6
ssg124
(dp544
g5
g6
sg7
g6
ssg126
(dp545
g5
g6
sg7
g6
ssg128
(dp546
g5
g6
sg7
g6
ssg130
(dp547
g7
g6
ssg132
(dp548
g5
g6
sg7
g6
ssg134
(dp549
g5
g6
sg7
g6
ssg136
(dp550
g5
g6
sg7
g6
ssg138
(dp551
g5
g6
sg7
g6
ssg140
(dp552
g5
g6
sg7
g6
ssg142
(dp553
g7
g6
ssg144
(dp554
g5
g6
sg7
g6
ssg147
(dp555
g5
g6
sg7
g6
ssg150
(dp556
g5
g6
sg7
g6
ssg153
(dp557
g5
g6
sg7
g6
ssg155
(dp558
g5
g6
sg7
g6
ssg157
(dp559
g5
g6
sg7
g6
ssg159
(dp560
g5
g6
sg7
g6
ssg161
(dp561
g5
g6
sg7
g6
ssg164
(dp562
g5
g6
ssg166
(dp563
g5
g6
sg7
g6
ssg168
(dp564
g7
g6
ssg170
(dp565
g7
S'-0.21'
p566
ssg172
(dp567
g5
g6
ssg174
(dp568
g5
g6
ssg176
(dp569
g5
S'-0.04'
p570
sg7
S'-0.2'
p571
ssg178
(dp572
g5
S'q-0.05'
p573
ssg180
(dp574
g7
g6
ssg182
(dp575
g5
S'0.04'
p576
sg7
S'0.45'
p577
ssg184
(dp578
g5
S'0.03'
p579
sg7
S'0.12'
p580
ssg186
(dp581
g7
g6
ssg188
(dp582
sg190
(dp583
g5
g6
sg7
g6
ssg192
(dp584
g5
g6
sg7
g6
ssg194
(dp585
g5
g6
sg7
g6
ssg197
(dp586
g5
g6
sg7
g6
ssg199
(dp587
g5
g6
sg7
g6
ssg201
(dp588
g5
g6
sg7
g6
ssg203
(dp589
g5
g6
sg7
g6
ssg205
(dp590
g7
g6
ssg208
(dp591
g5
g6
sg7
g6
ssg210
(dp592
g5
g6
sg7
g6
ssg212
(dp593
g5
g6
sg7
g6
ssg214
(dp594
sg216
(dp595
g5
g6
ssg218
(dp596
g5
g6
ssg220
(dp597
sg222
(dp598
g5
g6
sg7
g6
ssg226
(dp599
g7
g6
ssg229
(dp600
g5
g6
sg7
g6
ssg233
(dp601
g5
g6
sg7
g6
ssg237
(dp602
g5
g6
sg7
g6
ssg241
(dp603
g5
g6
sg7
g6
ssg245
(dp604
g5
g6
sg7
g6
ssg249
(dp605
g5
g6
sg7
g6
ssg253
(dp606
g5
g6
sg7
g6
ssg257
(dp607
g5
g6
sg7
g6
ssg259
(dp608
g5
g6
sg7
g6
ssg263
(dp609
g5
g6
sg7
g6
ssg267
(dp610
g5
g6
sg7
g6
ssg271
(dp611
g5
g6
sg7
g6
ssg274
(dp612
g7
g6
ssg277
(dp613
g5
g6
sg7
g6
ssg281
(dp614
g7
g6
ssg284
(dp615
g5
g6
sg7
g6
ssg287
(dp616
g5
g6
sg7
g6
ssg290
(dp617
g5
g6
sg7
g6
ssg292
(dp618
g7
g6
ssg294
(dp619
g5
g6
sg7
g6
ssg296
(dp620
g5
g6
sg7
g6
sssS':0018:ASP'
p621
(dp622
g3
(dp623
g5
g6
sg7
g6
ssg8
(dp624
g5
g6
sg7
g6
ssg10
(dp625
g5
g6
sg7
g6
ssg12
(dp626
g7
g6
ssg14
(dp627
g7
g6
ssg16
(dp628
g5
g6
sg7
g6
ssg18
(dp629
g7
g6
ssg20
(dp630
sg22
(dp631
g7
g6
ssg24
(dp632
g7
g6
ssg26
(dp633
g5
g6
sg7
g6
ssg28
(dp634
g5
g6
sg7
g6
ssg30
(dp635
g7
g6
ssg32
(dp636
g5
g6
sg7
g6
ssg34
(dp637
g5
g6
sg7
g6
ssg36
(dp638
g5
g6
sg7
g6
ssg38
(dp639
g5
g6
sg7
g6
ssg40
(dp640
g7
g6
ssg42
(dp641
g7
g6
ssg44
(dp642
g5
g6
sg7
g6
ssg46
(dp643
g5
g6
sg7
g6
ssg48
(dp644
g5
g6
sg7
g6
ssg50
(dp645
g5
g6
sg7
g6
ssg52
(dp646
g7
g6
ssg54
(dp647
sg56
(dp648
g7
g6
ssg58
(dp649
g7
g6
ssg60
(dp650
g5
g6
sg7
g6
ssg62
(dp651
g7
g6
ssg64
(dp652
g7
g6
ssg66
(dp653
g5
g6
sg7
g6
ssg68
(dp654
sg70
(dp655
g5
g6
sg7
g6
ssg72
(dp656
g5
g6
sg7
g6
ssg74
(dp657
g5
g6
sg7
g6
ssg76
(dp658
g5
g6
sg7
g6
ssg78
(dp659
g5
g6
sg7
g6
ssg80
(dp660
g5
g6
sg7
g6
ssg82
(dp661
g5
g6
sg7
g6
ssg84
(dp662
g5
g6
sg7
g6
ssg86
(dp663
g5
g6
sg7
g6
ssg88
(dp664
g5
g6
sg7
g6
ssg90
(dp665
g5
g6
sg7
g6
ssg92
(dp666
g5
g6
sg7
g6
ssg94
(dp667
g5
g6
sg7
g6
ssg96
(dp668
g7
g6
ssg98
(dp669
g5
g6
sg7
g6
ssg100
(dp670
g7
g6
ssg102
(dp671
g5
g6
sg7
g6
ssg104
(dp672
g7
g6
ssg106
(dp673
g5
g6
sg7
g6
ssg108
(dp674
g7
g6
ssg110
(dp675
g7
g6
ssg112
(dp676
g5
g6
sg7
g6
ssg114
(dp677
g5
g6
sg7
g6
ssg116
(dp678
g5
g6
sg7
g6
ssg118
(dp679
sg120
(dp680
g5
g6
sg7
g6
ssg122
(dp681
g5
g6
sg7
g6
ssg124
(dp682
g5
g6
sg7
g6
ssg126
(dp683
g5
g6
sg7
S'q-0.1'
p684
ssg128
(dp685
g5
g6
sg7
g6
ssg130
(dp686
sg132
(dp687
g5
g6
sg7
g6
ssg134
(dp688
g5
g6
sg7
g6
ssg136
(dp689
g5
g6
sg7
g6
ssg138
(dp690
g5
g6
sg7
g6
ssg140
(dp691
g5
g6
sg7
g6
ssg142
(dp692
g7
g6
ssg144
(dp693
g7
S'0.1'
p694
ssg147
(dp695
g5
S'>0.15;<0.25'
p696
sg7
S'>0.4;<0.7'
p697
ssg150
(dp698
g5
S'q>-0.06;<-0.03'
p699
sg7
S'-0.1'
p700
ssg153
(dp701
g5
S'q>-0.06;<-0.03'
p702
sg7
g6
ssg155
(dp703
g5
S'>0.25;<0.3'
p704
sg7
S'>0.2;<0.35'
p705
ssg157
(dp706
g5
S'>0.06;<0.1'
p707
sg7
S'>0.3;<0.6'
p708
ssg159
(dp709
g5
S'>0.08;<0.14'
p710
sg7
S'q>-0.4;<-0.2'
p711
ssg161
(dp712
g5
S'>0.04;<0.08'
p713
sg7
S'q>-1.2;<-0.8'
p714
ssg164
(dp715
g7
g6
ssg166
(dp716
g7
S'q>0.1;<0.2'
p717
ssg168
(dp718
g5
g6
sg7
g6
ssg170
(dp719
g5
g6
sg7
g6
ssg172
(dp720
g5
g6
sg7
g6
ssg174
(dp721
g5
g6
sg7
g6
ssg176
(dp722
g5
g6
sg7
g6
ssg178
(dp723
g5
g6
sg7
g6
ssg180
(dp724
g5
g6
sg7
g6
ssg182
(dp725
g5
g6
sg7
g6
ssg184
(dp726
g5
g6
sg7
g6
ssg186
(dp727
g5
g6
sg7
g6
ssg188
(dp728
sg190
(dp729
g5
g6
sg7
g6
ssg192
(dp730
g5
g6
sg7
g6
ssg194
(dp731
g5
g6
sg7
g6
ssg197
(dp732
g5
g6
sg7
g6
ssg199
(dp733
g5
g6
sg7
g6
ssg201
(dp734
g5
g6
sg7
g6
ssg203
(dp735
g5
g6
sg7
g6
ssg205
(dp736
g7
g6
ssg208
(dp737
g5
g6
sg7
g6
ssg210
(dp738
g5
g6
sg7
g6
ssg212
(dp739
g5
g6
sg7
g6
ssg214
(dp740
g7
g6
ssg216
(dp741
g5
g6
sg7
g6
ssg218
(dp742
g5
g6
sg7
g6
ssg220
(dp743
g7
g6
ssg222
(dp744
g5
g6
sg7
g6
ssg226
(dp745
g7
g6
ssg229
(dp746
g5
S'q>0.03;<0.06'
p747
ssg233
(dp748
g5
S'>0.15;<0.2'
p749
sg7
S'>1.3;<1.8'
p750
ssg237
(dp751
g7
g6
ssg241
(dp752
g5
g6
sg7
g6
ssg245
(dp753
g5
g6
sg7
g6
ssg249
(dp754
g5
g6
sg7
g6
ssg253
(dp755
g5
g6
sg7
g6
ssg257
(dp756
g7
g6
ssg259
(dp757
g5
S'0.06'
p758
sg7
S'>0.3;<0.5'
p759
ssg263
(dp760
g5
S'>-0.2;<-0.14'
p761
sg7
S'>-0.4;<-0.2'
p762
ssg267
(dp763
g5
g6
sg7
g6
ssg271
(dp764
g5
g6
sg7
g6
ssg274
(dp765
g7
g6
ssg277
(dp766
g5
g6
sg7
g6
ssg281
(dp767
g7
g6
ssg284
(dp768
g5
g6
sg7
g6
ssg287
(dp769
g5
g6
sg7
g6
ssg290
(dp770
g5
g6
sg7
g6
ssg292
(dp771
g7
g6
ssg294
(dp772
g5
g6
sg7
g6
ssg296
(dp773
g5
g6
sg7
g6
sssS':0035:GLU'
p774
(dp775
g3
(dp776
g5
S'q0.08'
p777
sg7
S'0.27'
p778
ssg8
(dp779
g5
S'0.22'
p780
sg7
S'0.31'
p781
ssg10
(dp782
g5
g6
ssg12
(dp783
g5
S'q0.03'
p784
ssg14
(dp785
sg16
(dp786
g5
g6
ssg18
(dp787
g5
S'q0.03'
p788
sg7
S'0.56'
p789
ssg20
(dp790
g5
S'q0.19'
p791
ssg22
(dp792
sg24
(dp793
sg26
(dp794
g5
g6
ssg28
(dp795
g7
S'q-0.11'
p796
ssg30
(dp797
g5
S'-0.03'
p798
ssg32
(dp799
g7
S'q-0.1'
p800
ssg34
(dp801
g7
S'q0.1'
p802
ssg36
(dp803
g5
S'q0.05'
p804
ssg38
(dp805
g5
g6
ssg40
(dp806
g7
S'-0.13'
p807
ssg42
(dp808
g7
S'0.1'
p809
ssg44
(dp810
g5
S'0.04'
p811
sg7
S'0.15'
p812
ssg46
(dp813
sg48
(dp814
g5
g6
sg7
S'q-0.28'
p815
ssg50
(dp816
sg52
(dp817
sg54
(dp818
sg56
(dp819
sg58
(dp820
g7
g6
ssg60
(dp821
g5
S'q0.04'
p822
sg7
S'q-0.12'
p823
ssg62
(dp824
g7
g6
ssg64
(dp825
sg66
(dp826
g5
S'q0.03'
p827
sg7
S'q0.12'
p828
ssg68
(dp829
sg70
(dp830
g5
g6
ssg72
(dp831
g5
S'q>-0.06;<-0.03'
p832
sg7
S'0.79'
p833
ssg74
(dp834
g5
S'0.12'
p835
sg7
S'0.61'
p836
ssg76
(dp837
sg78
(dp838
g5
S'q0.07'
p839
sg7
S'0.35'
p840
ssg80
(dp841
sg82
(dp842
g5
S'q0.03'
p843
sg7
S'0.26'
p844
ssg84
(dp845
g5
g6
ssg86
(dp846
g5
g6
sg7
g6
ssg88
(dp847
g5
S'q0.03'
p848
sg7
S'q0.17'
p849
ssg90
(dp850
g7
S'0.2'
p851
ssg92
(dp852
g5
S'-0.05'
p853
sg7
S'-0.1'
p854
ssg94
(dp855
g5
S'q0.05'
p856
sg7
S'0.25'
p857
ssg96
(dp858
g7
S'-0.15'
p859
ssg98
(dp860
g5
S'-0.06'
p861
sg7
S'q-0.13'
p862
ssg100
(dp863
g7
S'0.28'
p864
ssg102
(dp865
g5
S'q0.03'
p866
ssg104
(dp867
sg106
(dp868
g5
S'-0.02'
p869
sg7
S'0.16'
p870
ssg108
(dp871
g7
S'0.2'
p872
ssg110
(dp873
sg112
(dp874
g5
S'0.15'
p875
ssg114
(dp876
g5
S'q-0.07'
p877
sg7
S'-0.7'
p878
ssg116
(dp879
g5
S'q0.03'
p880
sg7
S'-0.14'
p881
ssg118
(dp882
g7
S'0.81'
p883
ssg120
(dp884
g5
g6
sg7
g6
ssg122
(dp885
g5
g6
sg7
g6
ssg124
(dp886
g7
g6
ssg126
(dp887
g7
g6
ssg128
(dp888
g5
g6
sg7
g6
ssg130
(dp889
g7
g6
ssg132
(dp890
g7
g6
ssg134
(dp891
g7
g6
ssg136
(dp892
g7
g6
ssg138
(dp893
sg140
(dp894
sg142
(dp895
g7
S'0.1'
p896
ssg144
(dp897
g5
g6
sg7
g6
ssg147
(dp898
g5
g6
sg7
g6
ssg150
(dp899
g5
g6
sg7
g6
ssg153
(dp900
g5
g6
sg7
g6
ssg155
(dp901
sg157
(dp902
g5
g6
sg7
g6
ssg159
(dp903
g5
g6
sg7
S'-0.12'
p904
ssg161
(dp905
sg164
(dp906
g5
S'q-0.07'
p907
sg7
S'q-0.28'
p908
ssg166
(dp909
g5
S'-0.04'
p910
sg7
g6
ssg168
(dp911
g5
S'-0.09'
p912
sg7
S'-0.51'
p913
ssg170
(dp914
g7
S'-0.53'
p915
ssg172
(dp916
g7
S'q-0.16'
p917
ssg174
(dp918
g5
S'-0.04'
p919
sg7
S'q0.1'
p920
ssg176
(dp921
g5
S'0.15'
p922
sg7
S'-0.56'
p923
ssg178
(dp924
g5
S'q-0.04'
p925
ssg180
(dp926
g7
S'0.46'
p927
ssg182
(dp928
sg184
(dp929
g5
S'0.16'
p930
sg7
S'0.42'
p931
ssg186
(dp932
g5
g6
sg7
g6
ssg188
(dp933
sg190
(dp934
g5
g6
sg7
g6
ssg192
(dp935
g5
g6
sg7
g6
ssg194
(dp936
g5
g6
sg7
g6
ssg197
(dp937
g5
g6
sg7
g6
ssg199
(dp938
g5
g6
sg7
g6
ssg201
(dp939
g5
g6
sg7
g6
ssg203
(dp940
g5
g6
sg7
S'q0.15'
p941
ssg205
(dp942
g7
g6
ssg208
(dp943
g5
g6
ssg210
(dp944
g5
g6
sg7
g6
ssg212
(dp945
g5
g6
sg7
g6
ssg214
(dp946
sg216
(dp947
g5
g6
ssg218
(dp948
g5
g6
ssg220
(dp949
sg222
(dp950
g5
g6
sg7
g6
ssg226
(dp951
g7
g6
ssg229
(dp952
g5
g6
sg7
g6
ssg233
(dp953
g5
g6
sg7
g6
ssg237
(dp954
g5
g6
sg7
g6
ssg241
(dp955
g5
g6
sg7
g6
ssg245
(dp956
g5
g6
sg7
g6
ssg249
(dp957
g5
g6
sg7
g6
ssg253
(dp958
g5
g6
sg7
g6
ssg257
(dp959
g5
g6
sg7
g6
ssg259
(dp960
g5
g6
sg7
g6
ssg263
(dp961
g5
g6
sg7
g6
ssg267
(dp962
g5
g6
ssg271
(dp963
g5
g6
ssg274
(dp964
g7
g6
ssg277
(dp965
g5
g6
sg7
g6
ssg281
(dp966
g7
g6
ssg284
(dp967
g5
g6
sg7
g6
ssg287
(dp968
g5
g6
sg7
g6
ssg290
(dp969
g5
g6
sg7
g6
ssg292
(dp970
sg294
(dp971
g7
S'q0.5'
p972
ssg296
(dp973
ssS':0129:CTERM'
p974
(dp975
g3
(dp976
g5
g6
sg7
g6
ssg8
(dp977
g5
g6
sg7
g6
ssg10
(dp978
g5
g6
sg7
g6
ssg12
(dp979
g7
g6
ssg14
(dp980
g7
g6
ssg16
(dp981
g5
g6
sg7
g6
ssg18
(dp982
g7
g6
ssg20
(dp983
g5
g6
ssg22
(dp984
g7
g6
ssg24
(dp985
g7
g6
ssg26
(dp986
g5
g6
sg7
g6
ssg28
(dp987
g5
g6
sg7
g6
ssg30
(dp988
g7
g6
ssg32
(dp989
g5
g6
sg7
g6
ssg34
(dp990
g5
g6
sg7
g6
ssg36
(dp991
g5
g6
sg7
g6
ssg38
(dp992
g5
g6
sg7
g6
ssg40
(dp993
g7
g6
ssg42
(dp994
g7
g6
ssg44
(dp995
g5
g6
sg7
g6
ssg46
(dp996
g5
g6
sg7
g6
ssg48
(dp997
g5
g6
sg7
g6
ssg50
(dp998
g5
g6
sg7
g6
ssg52
(dp999
g7
g6
ssg54
(dp1000
sg56
(dp1001
g7
g6
ssg58
(dp1002
g7
g6
ssg60
(dp1003
g5
g6
sg7
g6
ssg62
(dp1004
g7
g6
ssg64
(dp1005
g7
g6
ssg66
(dp1006
g5
g6
sg7
g6
ssg68
(dp1007
sg70
(dp1008
g5
g6
sg7
g6
ssg72
(dp1009
g5
g6
sg7
g6
ssg74
(dp1010
g5
g6
sg7
g6
ssg76
(dp1011
g5
g6
sg7
g6
ssg78
(dp1012
g5
g6
sg7
g6
ssg80
(dp1013
g5
g6
sg7
g6
ssg82
(dp1014
g5
g6
sg7
g6
ssg84
(dp1015
g5
g6
sg7
g6
ssg86
(dp1016
g5
g6
sg7
g6
ssg88
(dp1017
g5
g6
sg7
g6
ssg90
(dp1018
g5
g6
sg7
g6
ssg92
(dp1019
g5
g6
sg7
g6
ssg94
(dp1020
g5
g6
sg7
g6
ssg96
(dp1021
g7
g6
ssg98
(dp1022
g5
g6
sg7
g6
ssg100
(dp1023
g7
g6
ssg102
(dp1024
g5
g6
sg7
g6
ssg104
(dp1025
g7
g6
ssg106
(dp1026
g5
g6
sg7
g6
ssg108
(dp1027
g7
g6
ssg110
(dp1028
g7
g6
ssg112
(dp1029
g5
g6
sg7
g6
ssg114
(dp1030
g5
g6
sg7
g6
ssg116
(dp1031
g5
g6
sg7
g6
ssg118
(dp1032
sg120
(dp1033
g5
S'0.03'
p1034
sg7
S'>0.4;<0.7'
p1035
ssg122
(dp1036
sg124
(dp1037
g7
g6
ssg126
(dp1038
g7
S'-0.48'
p1039
ssg128
(dp1040
g5
g6
ssg130
(dp1041
g5
S'-0.05'
p1042
ssg132
(dp1043
g7
g6
ssg134
(dp1044
g7
g6
ssg136
(dp1045
g7
g6
ssg138
(dp1046
g7
g6
ssg140
(dp1047
g7
g6
ssg142
(dp1048
g7
g6
ssg144
(dp1049
g5
g6
sg7
g6
ssg147
(dp1050
g5
g6
sg7
g6
ssg150
(dp1051
g5
g6
sg7
g6
ssg153
(dp1052
g5
g6
sg7
g6
ssg155
(dp1053
g5
g6
ssg157
(dp1054
g5
g6
sg7
g6
ssg159
(dp1055
g5
g6
sg7
g6
ssg161
(dp1056
g5
g6
sg7
g6
ssg164
(dp1057
g7
g6
ssg166
(dp1058
g5
g6
sg7
g6
ssg168
(dp1059
g5
g6
sg7
g6
ssg170
(dp1060
g5
g6
sg7
g6
ssg172
(dp1061
g7
g6
ssg174
(dp1062
g5
g6
sg7
g6
ssg176
(dp1063
g5
g6
sg7
g6
ssg178
(dp1064
g5
g6
sg7
g6
ssg180
(dp1065
g5
g6
sg7
g6
ssg182
(dp1066
g5
g6
sg7
g6
ssg184
(dp1067
g5
g6
sg7
g6
ssg186
(dp1068
g5
g6
sg7
g6
ssg188
(dp1069
sg190
(dp1070
g5
g6
sg7
g6
ssg192
(dp1071
g5
g6
sg7
g6
ssg194
(dp1072
g5
g6
sg7
g6
ssg197
(dp1073
g5
g6
sg7
g6
ssg199
(dp1074
g5
g6
sg7
g6
ssg201
(dp1075
g5
g6
sg7
g6
ssg203
(dp1076
g5
g6
sg7
g6
ssg205
(dp1077
g7
g6
ssg208
(dp1078
g5
g6
sg7
g6
ssg210
(dp1079
g5
g6
sg7
g6
ssg212
(dp1080
g5
g6
sg7
g6
ssg214
(dp1081
g7
g6
ssg216
(dp1082
g5
g6
sg7
g6
ssg218
(dp1083
g5
g6
sg7
g6
ssg220
(dp1084
g7
g6
ssg222
(dp1085
g5
g6
sg7
g6
ssg226
(dp1086
g7
g6
ssg229
(dp1087
g5
g6
sg7
g6
ssg233
(dp1088
g5
g6
sg7
g6
ssg237
(dp1089
g5
S'q>-0.15;<-0.05'
p1090
sg7
g6
ssg241
(dp1091
g5
S'q>0.03;<0.06'
p1092
sg7
g6
ssg245
(dp1093
g5
S'q0.04'
p1094
sg7
g6
ssg249
(dp1095
g7
S'q0.13'
p1096
ssg253
(dp1097
g5
g6
sg7
g6
ssg257
(dp1098
g5
g6
sg7
g6
ssg259
(dp1099
g5
g6
sg7
g6
ssg263
(dp1100
g5
g6
sg7
g6
ssg267
(dp1101
g5
g6
sg7
g6
ssg271
(dp1102
g5
g6
sg7
g6
ssg274
(dp1103
g7
g6
ssg277
(dp1104
g5
g6
sg7
g6
ssg281
(dp1105
g7
g6
ssg284
(dp1106
g5
g6
sg7
g6
ssg287
(dp1107
g5
g6
sg7
g6
ssg290
(dp1108
g5
g6
sg7
g6
ssg292
(dp1109
g7
g6
ssg294
(dp1110
g5
g6
sg7
g6
ssg296
(dp1111
g5
g6
sg7
g6
sssS':0007:GLU'
p1112
(dp1113
g3
(dp1114
g5
g6
sg7
g6
ssg8
(dp1115
g5
g6
sg7
g6
ssg10
(dp1116
g5
g6
sg7
g6
ssg12
(dp1117
g7
g6
ssg14
(dp1118
g7
g6
ssg16
(dp1119
g5
g6
sg7
g6
ssg18
(dp1120
g7
g6
ssg20
(dp1121
g5
g6
ssg22
(dp1122
g7
g6
ssg24
(dp1123
g7
g6
ssg26
(dp1124
g5
g6
sg7
g6
ssg28
(dp1125
g5
g6
sg7
g6
ssg30
(dp1126
g7
g6
ssg32
(dp1127
g5
g6
sg7
g6
ssg34
(dp1128
g5
g6
sg7
g6
ssg36
(dp1129
g5
g6
sg7
g6
ssg38
(dp1130
g5
g6
sg7
g6
ssg40
(dp1131
g7
g6
ssg42
(dp1132
g7
g6
ssg44
(dp1133
g5
g6
sg7
g6
ssg46
(dp1134
g5
g6
sg7
g6
ssg48
(dp1135
g5
g6
sg7
g6
ssg50
(dp1136
g5
g6
sg7
g6
ssg52
(dp1137
g7
g6
ssg54
(dp1138
sg56
(dp1139
g7
g6
ssg58
(dp1140
g7
g6
ssg60
(dp1141
g5
g6
sg7
g6
ssg62
(dp1142
g7
g6
ssg64
(dp1143
g7
g6
ssg66
(dp1144
g5
g6
sg7
g6
ssg68
(dp1145
sg70
(dp1146
g5
g6
sg7
g6
ssg72
(dp1147
g5
g6
sg7
g6
ssg74
(dp1148
g5
g6
sg7
g6
ssg76
(dp1149
g5
g6
sg7
g6
ssg78
(dp1150
g5
g6
sg7
g6
ssg80
(dp1151
g5
g6
sg7
g6
ssg82
(dp1152
g5
g6
ssg84
(dp1153
sg86
(dp1154
g7
S'>0.1;<0.2'
p1155
ssg88
(dp1156
g5
g6
sg7
g6
ssg90
(dp1157
g5
g6
sg7
g6
ssg92
(dp1158
g5
g6
sg7
g6
ssg94
(dp1159
g5
g6
sg7
g6
ssg96
(dp1160
g7
g6
ssg98
(dp1161
g5
g6
sg7
g6
ssg100
(dp1162
g7
g6
ssg102
(dp1163
g5
g6
sg7
g6
ssg104
(dp1164
g7
g6
ssg106
(dp1165
g5
g6
sg7
g6
ssg108
(dp1166
g7
g6
ssg110
(dp1167
g7
g6
ssg112
(dp1168
g5
g6
sg7
g6
ssg114
(dp1169
g5
g6
sg7
g6
ssg116
(dp1170
g5
g6
sg7
g6
ssg118
(dp1171
sg120
(dp1172
g5
g6
sg7
g6
ssg122
(dp1173
g5
g6
sg7
g6
ssg124
(dp1174
g5
g6
sg7
g6
ssg126
(dp1175
g5
g6
sg7
g6
ssg128
(dp1176
g5
g6
sg7
g6
ssg130
(dp1177
g7
g6
ssg132
(dp1178
g5
g6
sg7
g6
ssg134
(dp1179
g5
g6
sg7
g6
ssg136
(dp1180
g5
g6
sg7
g6
ssg138
(dp1181
g5
g6
sg7
g6
ssg140
(dp1182
g5
g6
sg7
g6
ssg142
(dp1183
g7
g6
ssg144
(dp1184
g5
g6
sg7
g6
ssg147
(dp1185
g5
g6
sg7
g6
ssg150
(dp1186
g5
g6
sg7
g6
ssg153
(dp1187
g5
g6
sg7
g6
ssg155
(dp1188
g5
g6
sg7
g6
ssg157
(dp1189
g5
g6
sg7
g6
ssg159
(dp1190
g5
g6
sg7
g6
ssg161
(dp1191
g5
g6
sg7
g6
ssg164
(dp1192
g5
g6
sg7
g6
ssg166
(dp1193
g5
g6
sg7
g6
ssg168
(dp1194
g5
g6
sg7
g6
ssg170
(dp1195
g5
g6
sg7
g6
ssg172
(dp1196
g5
g6
sg7
g6
ssg174
(dp1197
g5
g6
sg7
g6
ssg176
(dp1198
g5
g6
sg7
g6
ssg178
(dp1199
g5
g6
sg7
g6
ssg180
(dp1200
g5
g6
sg7
g6
ssg182
(dp1201
g5
g6
sg7
g6
ssg184
(dp1202
g5
g6
sg7
g6
ssg186
(dp1203
g5
S'q0.03'
p1204
sg7
S'0.1'
p1205
ssg188
(dp1206
sg190
(dp1207
g5
S'>0.06;<0.12'
p1208
sg7
S'>-0.5;<-0.3'
p1209
ssg192
(dp1210
g5
S'q-0.07'
p1211
ssg194
(dp1212
g5
S'>-0.1;<-0.05'
p1213
sg7
S'>0.1;<0.2'
p1214
ssg197
(dp1215
g5
S'q>-0.06;<-0.03'
p1216
sg7
S'>0.1;<0.25'
p1217
ssg199
(dp1218
g5
S'>0.5;<0.7'
p1219
sg7
S'>0.3;<0.5'
p1220
ssg201
(dp1221
g5
S'q0.04'
p1222
sg7
S'>0.2;<0.35'
p1223
ssg203
(dp1224
g7
S'>0.2;<0.35'
p1225
ssg205
(dp1226
g7
g6
ssg208
(dp1227
g5
g6
sg7
g6
ssg210
(dp1228
g5
g6
sg7
g6
ssg212
(dp1229
g5
g6
sg7
g6
ssg214
(dp1230
g7
g6
ssg216
(dp1231
g5
g6
sg7
g6
ssg218
(dp1232
g5
g6
sg7
g6
ssg220
(dp1233
g7
g6
ssg222
(dp1234
g5
g6
sg7
g6
ssg226
(dp1235
g7
g6
ssg229
(dp1236
g5
g6
sg7
g6
ssg233
(dp1237
g5
g6
sg7
g6
ssg237
(dp1238
g5
g6
sg7
S'q-0.1'
p1239
ssg241
(dp1240
g7
g6
ssg245
(dp1241
g7
g6
ssg249
(dp1242
g5
g6
sg7
g6
ssg253
(dp1243
g5
g6
sg7
g6
ssg257
(dp1244
g7
g6
ssg259
(dp1245
g5
g6
sg7
g6
ssg263
(dp1246
g5
g6
sg7
g6
ssg267
(dp1247
g5
g6
sg7
g6
ssg271
(dp1248
g5
g6
sg7
g6
ssg274
(dp1249
g7
g6
ssg277
(dp1250
g5
g6
sg7
g6
ssg281
(dp1251
g7
g6
ssg284
(dp1252
g5
g6
sg7
g6
ssg287
(dp1253
g5
g6
sg7
g6
ssg290
(dp1254
g5
g6
sg7
g6
ssg292
(dp1255
g7
g6
ssg294
(dp1256
g5
g6
sg7
g6
ssg296
(dp1257
g5
g6
sg7
g6
sssS':0101:ASP'
p1258
(dp1259
g3
(dp1260
g5
S'q-0.03'
p1261
sg7
g6
ssg8
(dp1262
g5
g6
sg7
g6
ssg10
(dp1263
g5
g6
sg7
g6
ssg12
(dp1264
g7
g6
ssg14
(dp1265
g7
g6
ssg16
(dp1266
g5
g6
sg7
g6
ssg18
(dp1267
g7
g6
ssg20
(dp1268
g5
g6
ssg22
(dp1269
g7
g6
ssg24
(dp1270
g7
g6
ssg26
(dp1271
g5
g6
sg7
g6
ssg28
(dp1272
g5
g6
sg7
g6
ssg30
(dp1273
g7
g6
ssg32
(dp1274
g5
g6
sg7
g6
ssg34
(dp1275
g5
g6
sg7
g6
ssg36
(dp1276
g5
g6
sg7
g6
ssg38
(dp1277
g5
S'0.08'
p1278
ssg40
(dp1279
g7
g6
ssg42
(dp1280
g7
S'0.41'
p1281
ssg44
(dp1282
g5
S'-0.03'
p1283
sg7
S'-0.24'
p1284
ssg46
(dp1285
g5
S'0.05'
p1286
ssg48
(dp1287
g5
S'0.06'
p1288
sg7
S'-0.68'
p1289
ssg50
(dp1290
g5
S'0.06'
p1291
sg7
S'0.7'
p1292
ssg52
(dp1293
sg54
(dp1294
sg56
(dp1295
g7
S'q-0.1'
p1296
ssg58
(dp1297
g7
S'-0.12'
p1298
ssg60
(dp1299
g7
g6
ssg62
(dp1300
g7
S'q-0.1'
p1301
ssg64
(dp1302
g7
g6
ssg66
(dp1303
g5
g6
sg7
g6
ssg68
(dp1304
sg70
(dp1305
g5
g6
sg7
g6
ssg72
(dp1306
g7
g6
ssg74
(dp1307
g5
g6
sg7
g6
ssg76
(dp1308
g5
g6
sg7
g6
ssg78
(dp1309
g5
g6
sg7
g6
ssg80
(dp1310
g5
g6
sg7
g6
ssg82
(dp1311
g5
g6
sg7
g6
ssg84
(dp1312
g5
g6
sg7
g6
ssg86
(dp1313
g5
g6
sg7
g6
ssg88
(dp1314
g5
g6
sg7
g6
ssg90
(dp1315
g5
g6
sg7
g6
ssg92
(dp1316
g5
g6
sg7
g6
ssg94
(dp1317
g5
g6
sg7
g6
ssg96
(dp1318
g7
g6
ssg98
(dp1319
g5
g6
sg7
g6
ssg100
(dp1320
g7
g6
ssg102
(dp1321
g5
g6
sg7
g6
ssg104
(dp1322
g7
g6
ssg106
(dp1323
g5
g6
sg7
g6
ssg108
(dp1324
g7
g6
ssg110
(dp1325
g7
g6
ssg112
(dp1326
g5
g6
sg7
g6
ssg114
(dp1327
g5
g6
sg7
g6
ssg116
(dp1328
g5
g6
sg7
g6
ssg118
(dp1329
sg120
(dp1330
g5
g6
sg7
g6
ssg122
(dp1331
g5
g6
sg7
g6
ssg124
(dp1332
g5
g6
sg7
g6
ssg126
(dp1333
g5
g6
sg7
g6
ssg128
(dp1334
g5
g6
sg7
g6
ssg130
(dp1335
g7
g6
ssg132
(dp1336
g5
g6
sg7
g6
ssg134
(dp1337
g5
g6
sg7
g6
ssg136
(dp1338
g5
g6
sg7
g6
ssg138
(dp1339
g5
g6
sg7
g6
ssg140
(dp1340
g5
g6
sg7
g6
ssg142
(dp1341
g7
g6
ssg144
(dp1342
g5
g6
sg7
g6
ssg147
(dp1343
g5
g6
sg7
g6
ssg150
(dp1344
g5
g6
sg7
g6
ssg153
(dp1345
g5
g6
sg7
g6
ssg155
(dp1346
g5
g6
sg7
g6
ssg157
(dp1347
g5
g6
sg7
g6
ssg159
(dp1348
g5
g6
sg7
g6
ssg161
(dp1349
g5
g6
sg7
g6
ssg164
(dp1350
g5
g6
sg7
g6
ssg166
(dp1351
g5
g6
sg7
g6
ssg168
(dp1352
g5
g6
sg7
g6
ssg170
(dp1353
g5
g6
sg7
g6
ssg172
(dp1354
g5
g6
sg7
g6
ssg174
(dp1355
g5
g6
sg7
g6
ssg176
(dp1356
g5
g6
sg7
g6
ssg178
(dp1357
g5
g6
sg7
g6
ssg180
(dp1358
g5
g6
sg7
g6
ssg182
(dp1359
g5
g6
sg7
g6
ssg184
(dp1360
g5
g6
sg7
g6
ssg186
(dp1361
g5
g6
sg7
g6
ssg188
(dp1362
sg190
(dp1363
g5
g6
sg7
g6
ssg192
(dp1364
g5
g6
sg7
g6
ssg194
(dp1365
g5
g6
sg7
g6
ssg197
(dp1366
g5
g6
sg7
g6
ssg199
(dp1367
g5
g6
sg7
g6
ssg201
(dp1368
g5
g6
sg7
g6
ssg203
(dp1369
g5
g6
sg7
g6
ssg205
(dp1370
g7
g6
ssg208
(dp1371
g5
g6
sg7
g6
ssg210
(dp1372
g5
g6
ssg212
(dp1373
g5
g6
sg7
g6
ssg214
(dp1374
sg216
(dp1375
g5
g6
ssg218
(dp1376
g5
g6
ssg220
(dp1377
g7
S'q0.1'
p1378
ssg222
(dp1379
g5
g6
sg7
g6
ssg226
(dp1380
g7
g6
ssg229
(dp1381
g5
g6
sg7
g6
ssg233
(dp1382
g5
g6
sg7
g6
ssg237
(dp1383
g5
g6
sg7
g6
ssg241
(dp1384
g5
g6
sg7
g6
ssg245
(dp1385
g5
g6
sg7
g6
ssg249
(dp1386
g5
g6
sg7
g6
ssg253
(dp1387
g5
g6
sg7
g6
ssg257
(dp1388
g5
g6
sg7
g6
ssg259
(dp1389
g5
g6
sg7
g6
ssg263
(dp1390
g5
g6
sg7
g6
ssg267
(dp1391
g5
g6
sg7
g6
ssg271
(dp1392
g5
g6
sg7
g6
ssg274
(dp1393
g7
S'q-0.3'
p1394
ssg277
(dp1395
sg281
(dp1396
sg284
(dp1397
sg287
(dp1398
sg290
(dp1399
sg292
(dp1400
g7
S'0.4'
p1401
ssg294
(dp1402
g5
S'q-0.05'
p1403
sg7
S'-0.5'
p1404
ssg296
(dp1405
ss.