(dp0
S'Bell-shaped pH-act profile (2 pKas)'
p1
(dp2
S'varnames'
p3
S'pka1,pka2,scale'
p4
sS'equation'
p5
S'scale*(1.0/(math.pow(10,-pH)/math.pow(10,-pKa2)+1+math.pow(10,-pKa1)/math.pow(10,-pH)))'
p6
sS'description'
p7
S'pH activity profile'
p8
sS'Name'
p9
g1
sS'name'
p10
g1
ssS'Unfolding'
p11
(dp12
g3
S'an,bn,ad,bd,m,d50'
p13
sg5
S'((an + bn * x) + (ad + bd * x) * math.exp(m * (x-d50))) / (1+math.exp(m * (x-d50)))'
p14
sg7
S'fit to a denaturation curve. with 6 parameters, including baseline slopes'
p15
sg9
g11
sg10
g11
ssS'2 pKas, 3 Chemical shifts'
p16
(dp17
S'guess'
p18
S"{'offset': 'min(y)', 'span1': '(max(y)-min(y))/2', 'pKa1': 'min(x)+(max(x)-min(x))*0.25', 'pKa2': 'min(x)+(max(x)-min(x))*0.75', 'span2': '(max(y)-min(y))/2'}"
p19
sg7
S'titration curve with 2 independent pkas'
p20
sg5
S'span1/(1+10**(pKa1-x))+span2/(1+10**(-x+pKa2))+offset'
p21
sg10
g16
sg3
S'pKa1,pKa2,offset,span1,span2'
p22
sg9
g16
ssS'Linear'
p23
(dp24
g18
S"{'a': 'min(y)', 'b': 'max(y)-min(y)/max(x)-min(x)'}"
p25
sg7
S'straight line'
p26
sg5
S'a*x+b'
p27
sg10
g23
sg3
S'a,b'
p28
sg9
g23
ssS'Power'
p29
(dp30
g3
S'a,b'
p31
sg5
S'(x**a)+b'
p32
sg7
S'fit to data that obeys a power law'
p33
sg9
g29
sg10
g29
ssS'Sigmoid'
p34
(dp35
g18
S"{'slope': '0.5', 'top': 'max(y)', 'tm': '(max(x)-min(x))/2+min(x)', 'bottom': 'min(y)'}"
p36
sg7
S'simple sigmoid'
p37
sg5
S'bottom+(top-bottom)/(1+math.exp((tm-x)/slope))'
p38
sg10
g34
sg3
S'tm,bottom,top,slope'
p39
sg9
g34
ssS'3 pKas, 2 Chemical shifts'
p40
(dp41
g3
S'pKa1,pKa2,pKa3,offset,span1'
p42
sg5
S'span1*(x/pKa3 + 1)/(1+x/pKa2+x/pKa3+x*x/(pKa1*pKa3))+offset'
p43
sg7
S'titration curve with 3 independent pkas'
p44
sg9
g40
sg10
S'3 pKas, 2 Chemical shifts'
p45
ssS'Michaelis-Menten'
p46
(dp47
g18
S"{'Vmax': 'max(y)', 'labels': ['[S]', 'v'], 'Km': 'max(x)/2'}"
p48
sg7
S'fits enzyme kinetic data'
p49
sg5
S'(Vmax * x)/(x + Km)'
p50
sg10
g46
sg3
S'Km, Vmax'
p51
sg9
g46
ssS'1 pKa 2 Chemical shifts'
p52
(dp53
g18
S"{'pKa': 'min(x)+(max(x)-min(x))/2.0', 'span': 'max(y)-min(y)', 'offset': 'min(y)'}"
p54
sg7
S'titration curve with 1 independent pka'
p55
sg5
S'span/(1+10**(-x+pKa))+offset'
p56
sg10
g52
sg3
S'pKa,span,offset'
p57
sg9
g52
ssS'schellman'
p58
(dp59
g3
S'Tm,deltaH,deltacp'
p60
sg5
S'deltaH * (1- (t/tm)) - deltacp( (tm-t)+ (t*ln(t/tm)) )'
p61
sg7
S'Fit data to all thermodynamic params at same time\n       Elwell/Schellman, Biochim Biophys Acta 1977'
p62
sg9
g58
sg10
g58
ssS'Gaussian'
p63
(dp64
g3
S'a,b,c'
p65
sg5
S'a*exp(-(pow(x-b),2)/(pow(2*c,2)))'
p66
sg7
S'gaussian function, a bell-shaped curve'
p67
sg9
g63
sg10
g63
ssS'Amyloid Fibre Formation'
p68
(dp69
g3
S'yi,yf,mi,mf,x0,t'
p70
sg5
S'yi + mi*x + (yf+mf*x)/(1+math.exp((-x-x0)/t))'
p71
sg9
g68
sg10
g68
ssS'Arrhenius'
p72
(dp73
g3
S'A,Ea'
p74
sg5
S'A*exp(-Ea/RT)'
p75
sg7
S'arrhenius equation'
p76
sg9
g72
sg10
g72
ssS'3 pKas, 4 Chemical shifts'
p77
(dp78
g18
S"{'pKa1': 'min(x)+(max(x)-min(x))*0.25', 'pKa2': 'min(x)+(max(x)-min(x))*0.5', 'pKa3': 'min(x)+(max(x)-min(x))*0.75', 'span2': '(max(y)-min(y))/3', 'span1': '(max(y)-min(y))/3', 'span3': '(max(y)-min(y))/3', 'offset': 'min(y)'}"
p79
sg7
S''
p80
sg5
S'span1/(1+10**(pKa1-x))+span2/(1+10**(-x+pKa2))+span3/(1+10**(-x+pKa3))+offset'
p81
sg10
g77
sg3
S'pKa1,pKa2,pKa3,offset,span1,span2,span3'
p82
sg9
g77
ssS'DSC2state'
p83
(dp84
g3
S'Tm,deltaH'
p85
sg5
S'deltaH / (R*math.pow(x,2)) * f * (1-f)'
p86
sg7
S'fit simple two state model to DSC data'
p87
sg9
g83
sg10
g83
ssS'Substrate Depletion'
p88
(dp89
g3
S'x0,M,D'
p90
sg5
S'M * (1 - math.exp(-D*(x-x0)))'
p91
sg7
S'fit substrate depletion data'
p92
sg9
g88
sg10
g88
ssS'Modified Hill'
p93
(dp94
g18
S"{'pKa':'min(x)+(max(x)-min(x))/2.0'}"
p95
sg7
S'fit to a single titration curve with 1 pka and a hill parameter'
p96
sg5
S'span/(1+10**(n*(- x + pKa)))+offset'
p97
sg10
g93
sg3
S'pKa,span,offset,n'
p98
sg9
g93
ssS'Residual Activity'
p99
(dp100
g3
S't50,slope,top'
p101
sg5
S'top/((1+(T/T50)^slope))'
p102
sg7
S'fits thermal denaturation data (basic sigmoid)'
p103
sg9
g99
sg10
g99
ssS'DSCindependent'
p104
(dp105
g3
S'A,Tm,deltaH'
p106
sg5
S'A* (math.pow(deltaH,2) / (R*math.pow(x,2)) ) *f * (1-f)'
p107
sg7
S'Fit to a 3 parameter DSC curve'
p108
sg9
g104
sg10
g104
ssS'diffDenaturation'
p109
(dp110
g3
S'A,Tm,deltaH'
p111
sg5
S'A* (deltaH / (R*math.pow(x,2)) ) *f * (1-f)'
p112
sg7
S'Fit to a 3 parameter differential denaturation curve,\n        ref. John/Weeks Protein Science 2000'
p113
sg9
g109
sg10
g109
ss.