(dp0
S'schellman'
p1
(dp2
S'varnames'
p3
S'Tm,deltaH,deltacp'
p4
sS'equation'
p5
S'deltaH * (1- (x/Tm)) - deltacp * (x -Tm -(x*math.log(x/Tm)) )'
p6
sS'guess'
p7
(dp8
S'deltacp'
p9
S'4'
p10
sS'deltaH'
p11
S'400'
p12
sS'Tm'
p13
S'230'
p14
ssS'description'
p15
S'Fit data to all thermodynamic params at same time\n       Elwell/Schellman, Biochim Biophys Acta 1977'
p16
ssS'Thermal Inactivation'
p17
(dp18
S'varnames'
p19
VA,Ea
p20
sS'equation'
p21
Vmath.exp(-A*math.exp(-Ea/(8.3145*x))*900)
p22
sS'guess'
p23
(dp24
S'A'
p25
S'1'
p26
sS'Ea'
p27
S'5000'
p28
ssS'description'
p29
VFit unfolding activation energy directly to thermal inactivation data (Vriend et al. 98).
p30
ssS'3 pKas, 2 Chemical shifts'
p31
(dp32
g23
(dp33
sS'name'
p34
g31
sS'equation'
p35
S'span1*(x/pKa3 + 1)/(1+x/pKa2+x/pKa3+x*x/(pKa1*pKa3))+offset'
p36
sS'varnames'
p37
S'pKa1,pKa2,pKa3,offset,span1'
p38
sS'Name'
p39
g31
sS'description'
p40
S'titration curve with 3 independent pkas'
p41
ssS'3 pKas, 4 Chemical shifts'
p42
(dp43
S'guess'
p44
(dp45
S'pKa1'
p46
S'min(x)+(max(x)-min(x))*0.25'
p47
sS'pKa2'
p48
S'min(x)+(max(x)-min(x))*0.5'
p49
sS'pKa3'
p50
S'min(x)+(max(x)-min(x))*0.75'
p51
sS'span2'
p52
S'(max(y)-min(y))/3'
p53
sS'span1'
p54
g53
sS'span3'
p55
g53
sS'offset'
p56
S'min(y)'
p57
ssg40
S''
p58
sg35
S'span1/(1+10**(pKa1-x))+span2/(1+10**(-x+pKa2))+span3/(1+10**(-x+pKa3))+offset'
p59
sg34
g42
sg37
S'pKa1,pKa2,pKa3,offset,span1,span2,span3'
p60
sg39
g42
ssS'Residual Activity'
p61
(dp62
g44
(dp63
S't50'
p64
S'min(x)+(max(x)-min(x))/2.0'
p65
sS'slope'
p66
S'0.5'
p67
sS'top'
p68
S'max(y)'
p69
ssg40
S'fits thermal denaturation data (basic sigmoid)'
p70
sg35
S'top/(1+math.pow(x/t50,slope))'
p71
sg34
g61
sg37
S't50,slope,top'
p72
sg39
g61
ssS'2 pKas, 3 Chemical shifts'
p73
(dp74
S'varnames'
p75
VpKa1,pKa2,offset,span1,span2
p76
sS'equation'
p77
Vspan1/(1+10**(pKa1-x))+span2/(1+10**(-x+pKa2))+offset
p78
sS'guess'
p79
(dp80
S'span2'
p81
S'(max(y)-min(y))/2'
p82
sS'span1'
p83
S'(max(y)-min(y))/2'
p84
sS'pKa1'
p85
S'min(x)+(max(x)-min(x))*0.25'
p86
sS'pKa2'
p87
S'min(x)+(max(x)-min(x))*0.75'
p88
sS'offset'
p89
S'min(y)'
p90
ssS'description'
p91
Vtitration curve with 2 independent pkas
p92
ssS'Linear'
p93
(dp94
S'guess'
p95
(dp96
S'a'
p97
S'min(y)'
p98
sS'b'
p99
S'max(y)-min(y)/max(x)-min(x)'
p100
ssS'Name'
p101
S'Linear'
p102
sS'equation'
p103
S'a*x+b'
p104
sS'description'
p105
S'straight line'
p106
sS'varnames'
p107
S'a,b'
p108
sS'name'
p109
g102
ssS'Power'
p110
(dp111
g37
S'a,b'
p112
sg35
S'(x**a)+b'
p113
sg39
g110
sg40
S'fit to data that obeys a power law'
p114
sg34
g110
ssS'1 pKa 2 Chemical shifts'
p115
(dp116
g44
S"{'pKa': 'min(x)+(max(x)-min(x))/2.0', 'span': 'max(y)-min(y)', 'offset': 'min(y)'}"
p117
sg40
S'titration curve with 1 independent pka'
p118
sg35
S'span/(1+10**(-x+pKa))+offset'
p119
sg34
g115
sg37
S'pKa,span,offset'
p120
sg39
g115
ssS'Exponential Growth'
p121
(dp122
g44
(dp123
S'p'
p124
S'max(y)'
p125
ssg40
S'Exponential Association'
p126
sg35
S'p*(1-math.exp(-K*x))'
p127
sg34
g121
sg37
S'K,p'
p128
sg39
S'Exponential Growth'
p129
ssS'Substrate Depletion'
p130
(dp131
g23
(dp132
sg34
g130
sg35
S'M * (1 - math.exp(-D*(x-x0)))'
p133
sg37
S'x0,M,D'
p134
sg39
g130
sg40
S'fit substrate depletion data'
p135
ssS'Modified Hill'
p136
(dp137
g19
VpKa,span,offset,n
p138
sg21
Vspan/(1+10**(n*(- x + pKa)))+offset
p139
sg23
(dp140
S'pKa'
p141
S'min(x)+(max(x)-min(x))/2.0'
p142
ssg29
Vfit to a single titration curve with 1 pka and a hill parameter
p143
ssS'Bell-shaped pH-act profile (2 pKas)'
p144
(dp145
g23
(dp146
sg34
g144
sg35
S'scale*(1.0/(math.pow(10,-pH)/math.pow(10,-pKa2)+1+math.pow(10,-pKa1)/math.pow(10,-pH)))'
p147
sg37
S'pka1,pka2,scale'
p148
sg39
g144
sg40
S'pH activity profile'
p149
ssS'Michaelis-Menten'
p150
(dp151
g75
VKm,Vmax
p152
sg77
V(Vmax * x)/(x + Km)
p153
sg79
(dp154
VVmax
p155
S'max(y)'
p156
sVKm
p157
S'max(x)/100'
p158
ssg91
Vfits enzyme kinetic data
p159
ssS'Amyloid Fibre Formation'
p160
(dp161
g19
Vyi,yf,mi,mf,x0,t
p162
sg21
Vyi + mi*x + (yf+mf*x)/(1+math.exp((-x-x0)/t))
p163
sg23
(dp164
sg29
Vfits enzyme kinetic data
p165
ssS'DSCindependent'
p166
(dp167
g19
VA,Tm,deltaH
p168
sg21
VA* (math.pow(deltaH,2) / (R*math.pow(x,2)) ) *f * (1-f)
p169
sg23
(dp170
sg29
VFit to a 3 parameter DSC curve
p171
ssS'Unfolding'
p172
(dp173
g44
(dp174
S'd50'
p175
S'min(x)+(max(x)-min(x))/2.0'
p176
sS'bn'
p177
S'max(x)'
p178
sS'an'
p179
S'min(x)'
p180
ssg40
S'fit to a denaturation curve. with 6 parameters, including baseline slopes'
p181
sg35
S'((an + bn * x) + (ad + bd * x) * math.exp(m * (x-d50))) / (1+math.exp(m * (x-d50)))'
p182
sg34
g172
sg37
S'an,bn,ad,bd,m,d50'
p183
sg39
S'Unfolding'
p184
ssS'DSC2state'
p185
(dp186
g23
(dp187
sg34
g185
sg35
S'deltaH / (R*math.pow(x,2)) * f * (1-f)'
p188
sg37
S'Tm,deltaH'
p189
sg39
g185
sg40
S'fit simple two state model to DSC data'
p190
ssS'Sigmoid'
p191
(dp192
g44
S"{'slope': '1', 'top': 'max(y)', 'tm': '(max(x)-min(x))/2+min(x)', 'bottom': 'min(y)'}"
p193
sg40
S'simple sigmoid'
p194
sg35
S'bottom+(top-bottom)/(1+math.exp((tm-x)/slope))'
p195
sg34
g191
sg37
S'tm,bottom,top,slope'
p196
sg39
g191
ssS'diffDenaturation'
p197
(dp198
g3
S'A,f'
p199
sg5
S'A * f * (1-f) *(math.pow(x,2))'
p200
sg7
(dp201
S'A'
p202
S'3e4'
p203
sS'f'
p204
S'8e-3'
p205
ssg15
S'Fit to a 3 parameter differential denaturation curve,\n        ref. John/Weeks Protein Science 2000'
p206
ssS'Gaussian'
p207
(dp208
S'varnames'
p209
S'a,b,c'
p210
sS'equation'
p211
S'a*exp(-(pow((x-b),2)/(pow(2*c,2))))'
p212
sS'guess'
p213
(dp214
Va
p215
S'max(y)'
p216
sVc
p217
S'100'
p218
ssS'description'
p219
S'gaussian function, a bell-shaped curve'
p220
ssS'Arrhenius'
p221
(dp222
S'guess'
p223
(dp224
sg39
g221
sg35
S'A*exp(-Ea/RT)'
p225
sg34
g221
sg37
S'A,Ea'
p226
sg40
S'arrhenius equation'
p227
ss.