(dp0
S'schellman'
p1
(dp2
S'varnames'
p3
S'Tm,deltaH,deltacp'
p4
sS'equation'
p5
S'deltaH * (1- (t/tm)) - deltacp( (tm-t)+ (t*ln(t/tm)) )'
p6
sS'description'
p7
S'Fit data to all thermodynamic params at same time\n       Elwell/Schellman, Biochim Biophys Acta 1977'
p8
sS'Name'
p9
g1
sS'name'
p10
g1
ssS'Thermal Inactivation'
p11
(dp12
S'guess'
p13
S"{'A':'1','Ea':'5000','t':'900'}"
p14
sg7
S'Fit unfolding activation energy directly to thermal inactivation data (Vriend et al. 98).'
p15
sg5
S'math.exp(-A*math,exp(-Ea/(8.3145*x))*t)'
p16
sg10
g11
sg3
S'A,t,Ea'
p17
sg9
S'Thermal Inactivation'
p18
ssS'3 pKas, 2 Chemical shifts'
p19
(dp20
g3
S'pKa1,pKa2,pKa3,offset,span1'
p21
sg5
S'span1*(x/pKa3 + 1)/(1+x/pKa2+x/pKa3+x*x/(pKa1*pKa3))+offset'
p22
sg7
S'titration curve with 3 independent pkas'
p23
sg9
g19
sg10
g19
ssS'3 pKas, 4 Chemical shifts'
p24
(dp25
g13
S"{'pKa1': 'min(x)+(max(x)-min(x))*0.25', 'pKa2': 'min(x)+(max(x)-min(x))*0.5', 'pKa3': 'min(x)+(max(x)-min(x))*0.75', 'span2': '(max(y)-min(y))/3', 'span1': '(max(y)-min(y))/3', 'span3': '(max(y)-min(y))/3', 'offset': 'min(y)'}"
p26
sg7
S''
p27
sg5
S'span1/(1+10**(pKa1-x))+span2/(1+10**(-x+pKa2))+span3/(1+10**(-x+pKa3))+offset'
p28
sg10
g24
sg3
S'pKa1,pKa2,pKa3,offset,span1,span2,span3'
p29
sg9
g24
ssS'Residual Activity'
p30
(dp31
g13
S"{'t50':'min(x)+(max(x)-min(x))/2.0','slope':'0.5','top':'max(y)'}"
p32
sg7
S'fits thermal denaturation data (basic sigmoid)'
p33
sg5
S'top/(1+math.pow(x/t50,slope))'
p34
sg10
g30
sg3
S't50,slope,top'
p35
sg9
g30
ssS'2 pKas, 3 Chemical shifts'
p36
(dp37
g13
S"{'offset': 'min(y)', 'span1': '(max(y)-min(y))/2', 'pKa1': 'min(x)+(max(x)-min(x))*0.25', 'pKa2': 'min(x)+(max(x)-min(x))*0.75', 'span2': '(max(y)-min(y))/2'}"
p38
sg7
S'titration curve with 2 independent pkas'
p39
sg5
S'span1/(1+10**(pKa1-x))+span2/(1+10**(-x+pKa2))+offset'
p40
sg10
g36
sg3
S'pKa1,pKa2,offset,span1,span2'
p41
sg9
g36
ssS'Linear'
p42
(dp43
g13
S"{'a': 'min(y)', 'b': 'max(y)-min(y)/max(x)-min(x)'}"
p44
sg7
S'straight line'
p45
sg5
S'a*x+b'
p46
sg10
g42
sg3
S'a,b'
p47
sg9
g42
ssS'Power'
p48
(dp49
g3
S'a,b'
p50
sg5
S'(x**a)+b'
p51
sg7
S'fit to data that obeys a power law'
p52
sg9
g48
sg10
g48
ssS'1 pKa 2 Chemical shifts'
p53
(dp54
g13
S"{'pKa': 'min(x)+(max(x)-min(x))/2.0', 'span': 'max(y)-min(y)', 'offset': 'min(y)'}"
p55
sg7
S'titration curve with 1 independent pka'
p56
sg5
S'span/(1+10**(-x+pKa))+offset'
p57
sg10
g53
sg3
S'pKa,span,offset'
p58
sg9
g53
ssS'Exponential Growth'
p59
(dp60
g13
S"{'p':'max(y)'}"
p61
sg7
S'Exponential Association'
p62
sg5
S'p*(1-math.exp(-K*x))'
p63
sg10
g59
sg3
S'K,p'
p64
sg9
S'Exponential Growth'
p65
ssS'Substrate Depletion'
p66
(dp67
g3
S'x0,M,D'
p68
sg5
S'M * (1 - math.exp(-D*(x-x0)))'
p69
sg7
S'fit substrate depletion data'
p70
sg9
g66
sg10
g66
ssS'Modified Hill'
p71
(dp72
g13
S"{'pKa':'min(x)+(max(x)-min(x))/2.0'}"
p73
sg7
S'fit to a single titration curve with 1 pka and a hill parameter'
p74
sg5
S'span/(1+10**(n*(- x + pKa)))+offset'
p75
sg10
g71
sg3
S'pKa,span,offset,n'
p76
sg9
g71
ssS'Bell-shaped pH-act profile (2 pKas)'
p77
(dp78
g3
S'pka1,pka2,scale'
p79
sg5
S'scale*(1.0/(math.pow(10,-pH)/math.pow(10,-pKa2)+1+math.pow(10,-pKa1)/math.pow(10,-pH)))'
p80
sg7
S'pH activity profile'
p81
sg9
g77
sg10
g77
ssS'Michaelis-Menten'
p82
(dp83
g13
S"{'Vmax': 'max(y)', 'labels': ['[S]', 'v'], 'Km': 'max(x)/2'}"
p84
sg7
S'fits enzyme kinetic data'
p85
sg5
S'(Vmax * x)/(x + Km)'
p86
sg10
g82
sg3
S'Km, Vmax'
p87
sg9
g82
ssS'Amyloid Fibre Formation'
p88
(dp89
g3
S'yi,yf,mi,mf,x0,t'
p90
sg5
S'yi + mi*x + (yf+mf*x)/(1+math.exp((-x-x0)/t))'
p91
sg9
g88
sg10
g88
ssS'DSCindependent'
p92
(dp93
g3
S'A,Tm,deltaH'
p94
sg5
S'A* (math.pow(deltaH,2) / (R*math.pow(x,2)) ) *f * (1-f)'
p95
sg7
S'Fit to a 3 parameter DSC curve'
p96
sg9
g92
sg10
g92
ssS'Unfolding'
p97
(dp98
g13
S"{'an':'min(x)','bn':'max(x)','d50':'min(x)+(max(x)-min(x))/2.0'}"
p99
sg7
S'fit to a denaturation curve. with 6 parameters, including baseline slopes'
p100
sg5
S'((an + bn * x) + (ad + bd * x) * math.exp(m * (x-d50))) / (1+math.exp(m * (x-d50)))'
p101
sg10
g97
sg3
S'an,bn,ad,bd,m,d50'
p102
sg9
S'Unfolding'
p103
ssS'DSC2state'
p104
(dp105
g3
S'Tm,deltaH'
p106
sg5
S'deltaH / (R*math.pow(x,2)) * f * (1-f)'
p107
sg7
S'fit simple two state model to DSC data'
p108
sg9
g104
sg10
g104
ssS'Sigmoid'
p109
(dp110
g13
S"{'slope': '1', 'top': 'max(y)', 'tm': '(max(x)-min(x))/2+min(x)', 'bottom': 'min(y)'}"
p111
sg7
S'simple sigmoid'
p112
sg5
S'bottom+(top-bottom)/(1+math.exp((tm-x)/slope))'
p113
sg10
g109
sg3
S'tm,bottom,top,slope'
p114
sg9
g109
ssS'diffDenaturation'
p115
(dp116
g3
S'A,Tm,deltaH'
p117
sg5
S'A* (deltaH / (R*math.pow(x,2)) ) *f * (1-f)'
p118
sg7
S'Fit to a 3 parameter differential denaturation curve,\n        ref. John/Weeks Protein Science 2000'
p119
sg9
g115
sg10
g115
ssS'Gaussian'
p120
(dp121
g3
S'a,b,c'
p122
sg5
S'a*exp(-(pow(x-b),2)/(pow(2*c,2)))'
p123
sg7
S'gaussian function, a bell-shaped curve'
p124
sg9
g120
sg10
g120
ssS'Arrhenius'
p125
(dp126
g3
S'A,Ea'
p127
sg5
S'A*exp(-Ea/RT)'
p128
sg7
S'arrhenius equation'
p129
sg9
g125
sg10
g125
ss.