(dp0
S'schellman'
p1
(dp2
S'varnames'
p3
S'Tm,deltaH,deltacp'
p4
sS'equation'
p5
S'deltaH * (1- (x/Tm)) - deltacp * (x -Tm -(x*math.log(x/Tm)) )'
p6
sS'guess'
p7
(dp8
S'deltacp'
p9
S'4'
p10
sS'deltaH'
p11
S'400'
p12
sS'Tm'
p13
S'230'
p14
ssS'description'
p15
S'Fit data to all thermodynamic params at same time\n       Elwell/Schellman, Biochim Biophys Acta 1977'
p16
ssS'Thermal Inactivation'
p17
(dp18
S'varnames'
p19
VA,Ea
p20
sS'equation'
p21
Vmath.exp(-A*math.exp(-Ea/(8.3145*x))*900)
p22
sS'guess'
p23
(dp24
S'A'
p25
S'1'
p26
sS'Ea'
p27
S'5000'
p28
ssS'description'
p29
VFit unfolding activation energy directly to thermal inactivation data (Vriend et al. 98).
p30
ssS'3 pKas, 2 Chemical shifts'
p31
(dp32
g23
(dp33
sS'description'
p34
S'titration curve with 3 independent pkas'
p35
sS'equation'
p36
S'span1*(x/pKa3 + 1)/(1+x/pKa2+x/pKa3+x*x/(pKa1*pKa3))+offset'
p37
sS'varnames'
p38
S'pKa1,pKa2,pKa3,offset,span1'
p39
sS'Name'
p40
g31
sS'name'
p41
g31
ssS'3 pKas, 4 Chemical shifts'
p42
(dp43
S'guess'
p44
(dp45
S'pKa1'
p46
S'min(x)+(max(x)-min(x))*0.25'
p47
sS'pKa2'
p48
S'min(x)+(max(x)-min(x))*0.5'
p49
sS'pKa3'
p50
S'min(x)+(max(x)-min(x))*0.75'
p51
sS'offset'
p52
S'min(y)'
p53
sS'span1'
p54
S'(max(y)-min(y))/3'
p55
sS'span3'
p56
g55
sS'span2'
p57
g55
ssg40
g42
sg36
S'span1/(1+10**(pKa1-x))+span2/(1+10**(-x+pKa2))+span3/(1+10**(-x+pKa3))+offset'
p58
sg41
g42
sg38
S'pKa1,pKa2,pKa3,offset,span1,span2,span3'
p59
sg34
S''
p60
ssS'Residual Activity'
p61
(dp62
g44
(dp63
S't50'
p64
S'min(x)+(max(x)-min(x))/2.0'
p65
sS'slope'
p66
S'0.5'
p67
sS'top'
p68
S'max(y)'
p69
ssg40
g61
sg36
S'top/(1+math.pow(x/t50,slope))'
p70
sg41
g61
sg38
S't50,slope,top'
p71
sg34
S'fits thermal denaturation data (basic sigmoid)'
p72
ssS'2 pKas, 3 Chemical shifts'
p73
(dp74
S'varnames'
p75
VpKa1,pKa2,offset,span1,span2
p76
sS'equation'
p77
Vspan1/(1+10**(pKa1-x))+span2/(1+10**(-x+pKa2))+offset
p78
sS'guess'
p79
(dp80
S'offset'
p81
S'min(y)'
p82
sS'span1'
p83
S'(max(y)-min(y))/2'
p84
sS'pKa1'
p85
S'min(x)+(max(x)-min(x))*0.25'
p86
sS'pKa2'
p87
S'min(x)+(max(x)-min(x))*0.75'
p88
sS'span2'
p89
S'(max(y)-min(y))/2'
p90
ssS'description'
p91
Vtitration curve with 2 independent pkas
p92
ssS'Linear'
p93
(dp94
S'guess'
p95
(dp96
S'a'
p97
S'min(y)'
p98
sS'b'
p99
S'max(y)-min(y)/max(x)-min(x)'
p100
ssS'name'
p101
S'Linear'
p102
sS'equation'
p103
S'a*x+b'
p104
sS'description'
p105
S'straight line'
p106
sS'varnames'
p107
S'a,b'
p108
sS'Name'
p109
g102
ssS'Power'
p110
(dp111
g38
S'a,b'
p112
sg36
S'(x**a)+b'
p113
sg40
g110
sg41
g110
sg34
S'fit to data that obeys a power law'
p114
ssS'1 pKa 2 Chemical shifts'
p115
(dp116
g44
S"{'pKa': 'min(x)+(max(x)-min(x))/2.0', 'span': 'max(y)-min(y)', 'offset': 'min(y)'}"
p117
sg40
g115
sg36
S'span/(1+10**(-x+pKa))+offset'
p118
sg41
g115
sg38
S'pKa,span,offset'
p119
sg34
S'titration curve with 1 independent pka'
p120
ssS'Exponential Growth'
p121
(dp122
g44
(dp123
S'p'
p124
S'max(y)'
p125
ssg40
S'Exponential Growth'
p126
sg36
S'p*(1-math.exp(-K*x))'
p127
sg41
g121
sg38
S'K,p'
p128
sg34
S'Exponential Association'
p129
ssS'Substrate Depletion'
p130
(dp131
g23
(dp132
sg34
S'fit substrate depletion data'
p133
sg36
S'M * (1 - math.exp(-D*(x-x0)))'
p134
sg38
S'x0,M,D'
p135
sg40
g130
sg41
g130
ssS'Modified Hill'
p136
(dp137
g19
VpKa,span,offset,n
p138
sg21
Vspan/(1+10**(n*(- x + pKa)))+offset
p139
sg23
(dp140
S'pKa'
p141
S'min(x)+(max(x)-min(x))/2.0'
p142
ssg29
Vfit to a single titration curve with 1 pka and a hill parameter
p143
ssS'Bell-shaped pH-act profile (2 pKas)'
p144
(dp145
g23
(dp146
sg34
S'pH activity profile'
p147
sg36
S'scale*(1.0/(math.pow(10,-pH)/math.pow(10,-pKa2)+1+math.pow(10,-pKa1)/math.pow(10,-pH)))'
p148
sg38
S'pka1,pka2,scale'
p149
sg40
g144
sg41
g144
ssS'Michaelis-Menten'
p150
(dp151
g75
VKm,Vmax
p152
sg77
V(Vmax * x)/(x + Km)
p153
sg79
(dp154
VVmax
p155
S'max(y)'
p156
sVKm
p157
S'max(x)/100'
p158
ssg91
Vfits enzyme kinetic data
p159
ssS'Amyloid Fibre Formation'
p160
(dp161
g19
Vyi,yf,mi,mf,x0,t
p162
sg21
Vyi + mi*x + (yf+mf*x)/(1+math.exp((-x-x0)/t))
p163
sg23
(dp164
sg29
Vfits enzyme kinetic data
p165
ssS'DSCindependent'
p166
(dp167
g19
VA,Tm,deltaH
p168
sg21
VA* (math.pow(deltaH,2) / (R*math.pow(x,2)) ) *f * (1-f)
p169
sg23
(dp170
sg29
VFit to a 3 parameter DSC curve
p171
ssS'Unfolding'
p172
(dp173
g44
(dp174
S'd50'
p175
S'min(x)+(max(x)-min(x))/2.0'
p176
sS'bn'
p177
S'max(x)'
p178
sS'an'
p179
S'min(x)'
p180
ssg40
S'Unfolding'
p181
sg36
S'((an + bn * x) + (ad + bd * x) * math.exp(m * (x-d50))) / (1+math.exp(m * (x-d50)))'
p182
sg41
g172
sg38
S'an,bn,ad,bd,m,d50'
p183
sg34
S'fit to a denaturation curve. with 6 parameters, including baseline slopes'
p184
ssS'DSC2state'
p185
(dp186
g23
(dp187
sg34
S'fit simple two state model to DSC data'
p188
sg36
S'deltaH / (R*math.pow(x,2)) * f * (1-f)'
p189
sg38
S'Tm,deltaH'
p190
sg40
g185
sg41
g185
ssS'Sigmoid'
p191
(dp192
g44
S"{'slope': '1', 'top': 'max(y)', 'tm': '(max(x)-min(x))/2+min(x)', 'bottom': 'min(y)'}"
p193
sg40
g191
sg36
S'bottom+(top-bottom)/(1+math.exp((tm-x)/slope))'
p194
sg41
g191
sg38
S'tm,bottom,top,slope'
p195
sg34
S'simple sigmoid'
p196
ssS'diffDenaturation'
p197
(dp198
S'varnames'
p199
S'A,deltaH,f'
p200
sS'equation'
p201
S'A * (deltaH / (8.1e-3 * math.pow(x,2)) ) *f *(1-f)'
p202
sS'guess'
p203
(dp204
S'A'
p205
S'1'
p206
sS'f'
p207
g206
ssS'description'
p208
S'Fit to a 3 parameter differential denaturation curve,\n        ref. John/Weeks Protein Science 2000'
p209
ssS'Gaussian'
p210
(dp211
S'varnames'
p212
S'a,b,c'
p213
sS'equation'
p214
S'a*exp(-(pow((x-b),2)/(pow(2*c,2))))'
p215
sS'guess'
p216
(dp217
Va
p218
S'max(y)'
p219
sVc
p220
S'100'
p221
ssS'description'
p222
S'gaussian function, a bell-shaped curve'
p223
ssS'Arrhenius'
p224
(dp225
S'guess'
p226
(dp227
sg34
S'arrhenius equation'
p228
sg36
S'A*exp(-Ea/RT)'
p229
sg41
g224
sg38
S'A,Ea'
p230
sg40
g224
ss.